(dp1
S'files'
p2
(dp3
S'_usr_local_lib_python2_7_dist-packages_django_core_files_temp'
p4
(dp5
S'index'
p6
(dp7
S'html_filename'
p8
S'_usr_local_lib_python2_7_dist-packages_django_core_files_temp.html'
p9
sS'name'
p10
S'/usr/local/lib/python2.7/dist-packages/django/core/files/temp'
p11
sS'nums'
p12
ccopy_reg
_reconstructor
p13
(ccoverage.results
Numbers
p14
c__builtin__
object
p15
NtRp16
(dp17
S'n_files'
p18
I1
sS'n_branches'
p19
I0
sS'n_statements'
p20
I35
sS'n_excluded'
p21
I0
sS'n_partial_branches'
p22
I0
sS'n_missing'
p23
I28
sS'n_missing_branches'
p24
I0
sbssS'hash'
p25
S'?1\x91u0T|[< \x85\xce\xee~\x84?'
p26
ssS'_usr_local_lib_python2_7_dist-packages_django_core_files_utils'
p27
(dp28
g6
(dp29
g8
S'_usr_local_lib_python2_7_dist-packages_django_core_files_utils.html'
p30
sg10
S'/usr/local/lib/python2.7/dist-packages/django/core/files/utils'
p31
sg12
g13
(g14
g15
NtRp32
(dp33
g18
I1
sg19
I0
sg20
I19
sg21
I0
sg22
I0
sg23
I1
sg24
I0
sbssg25
S'\xf9\x11l\xd6u\x8d\xd2\xe3g\x05F\xd6{F\x15\xdc'
p34
ssS'_usr_local_lib_python2_7_dist-packages_django_contrib_admin___init__'
p35
(dp36
g6
(dp37
g8
S'_usr_local_lib_python2_7_dist-packages_django_contrib_admin___init__.html'
p38
sg10
S'/usr/local/lib/python2.7/dist-packages/django/contrib/admin/__init__'
p39
sg12
g13
(g14
g15
NtRp40
(dp41
g18
I1
sg19
I0
sg20
I10
sg21
I0
sg22
I0
sg23
I0
sg24
I0
sbssg25
S'\xf1o\x8f\xea\xe5lV\x88\x9eS|^\xa9\xa7c\x9d'
p42
ssS'_usr_local_lib_python2_7_dist-packages_django_contrib_sites___init__'
p43
(dp44
g6
(dp45
g8
S'_usr_local_lib_python2_7_dist-packages_django_contrib_sites___init__.html'
p46
sg10
S'/usr/local/lib/python2.7/dist-packages/django/contrib/sites/__init__'
p47
sg12
g13
(g14
g15
NtRp48
(dp49
g18
I1
sg19
I0
sg20
I1
sg21
I0
sg22
I0
sg23
I0
sg24
I0
sbssg25
S'\xc8"\xd2h\'\xe2C\x8b]\x17\x05\xd8?\x153}'
p50
ssS'_usr_local_lib_python2_7_dist-packages_django_utils_module_loading'
p51
(dp52
g6
(dp53
g8
S'_usr_local_lib_python2_7_dist-packages_django_utils_module_loading.html'
p54
sg10
S'/usr/local/lib/python2.7/dist-packages/django/utils/module_loading'
p55
sg12
g13
(g14
g15
NtRp56
(dp57
g18
I1
sg19
I0
sg20
I89
sg21
I0
sg22
I0
sg23
I26
sg24
I0
sbssg25
S';[2\xf1\xee\xea\x88\xf6\x94\xa6\n\xae\x1c\xca\xe2\xf2'
p58
ssS'app1_migrations_0003_auto_20141028_1536'
p59
(dp60
g6
(dp61
g8
S'app1_migrations_0003_auto_20141028_1536.html'
p62
sg10
S'app1/migrations/0003_auto_20141028_1536'
p63
sg12
g13
(g14
g15
NtRp64
(dp65
g18
I1
sg19
I0
sg20
I5
sg21
I0
sg22
I0
sg23
I0
sg24
I0
sbssg25
S'\x9c\x04\x97Y\x89\xb9\x7f\xfc\xa5k3V\xcc;\xbc\xa4'
p66
ssS'_usr_local_lib_python2_7_dist-packages_django_test_client'
p67
(dp68
g6
(dp69
S'html_filename'
p70
S'_usr_local_lib_python2_7_dist-packages_django_test_client.html'
p71
sS'name'
p72
S'/usr/local/lib/python2.7/dist-packages/django/test/client'
p73
sS'nums'
p74
g13
(g14
g15
NtRp75
(dp76
g18
I1
sg19
I0
sg20
I292
sg21
I0
sg22
I0
sg23
I95
sg24
I0
sbssg25
S'\xd1q\x10\xed\xbc\x0f\xad\x19\xc3`\xb7\x18VB\x9d,'
p77
ssS'_usr_local_lib_python2_7_dist-packages_django_core_management_base'
p78
(dp79
g6
(dp80
g8
S'_usr_local_lib_python2_7_dist-packages_django_core_management_base.html'
p81
sg10
S'/usr/local/lib/python2.7/dist-packages/django/core/management/base'
p82
sg12
g13
(g14
g15
NtRp83
(dp84
g18
I1
sg19
I0
sg20
I187
sg21
I0
sg22
I0
sg23
I89
sg24
I0
sbssg25
S'\xb1\x01pu\x10\xe76\x85H\x9ep\xd4j\xc5\x15\xc9'
p85
ssS'app1_migrations_0002_remove_person_events'
p86
(dp87
g6
(dp88
g8
S'app1_migrations_0002_remove_person_events.html'
p89
sg10
S'app1/migrations/0002_remove_person_events'
p90
sg12
g13
(g14
g15
NtRp91
(dp92
g18
I1
sg19
I0
sg20
I5
sg21
I0
sg22
I0
sg23
I0
sg24
I0
sbssg25
S'K_/Ep\xd9x\x17\x10W)\xa8\x9fb\xce\x81'
p93
ssS'_usr_local_lib_python2_7_dist-packages_django_forms_models'
p94
(dp95
g6
(dp96
g70
S'_usr_local_lib_python2_7_dist-packages_django_forms_models.html'
p97
sg72
S'/usr/local/lib/python2.7/dist-packages/django/forms/models'
p98
sg74
g13
(g14
g15
NtRp99
(dp100
g18
I1
sg19
I0
sg20
I658
sg21
I0
sg22
I0
sg23
I435
sg24
I0
sbssg25
S'\x07q5\xefQ\xc7\xa2\x94\x06q\xee\xdf\xd3\xf8\x1bv'
p101
ssS'app1_views'
p102
(dp103
g6
(dp104
S'html_filename'
p105
S'app1_views.html'
p106
sS'name'
p107
S'app1/views'
p108
sS'nums'
p109
g13
(g14
g15
NtRp110
(dp111
g18
I1
sg19
I0
sg20
I28
sg21
I0
sg22
I0
sg23
I0
sg24
I0
sbssg25
S'\xd3\xb6w\xfd\x01\x0ck\x14?u\x94\xe8\xdc\xf5\xe9\x16'
p112
ssS'_usr_local_lib_python2_7_dist-packages_django_core_handlers_base'
p113
(dp114
g6
(dp115
g8
S'_usr_local_lib_python2_7_dist-packages_django_core_handlers_base.html'
p116
sg10
S'/usr/local/lib/python2.7/dist-packages/django/core/handlers/base'
p117
sg12
g13
(g14
g15
NtRp118
(dp119
g18
I1
sg19
I0
sg20
I145
sg21
I0
sg22
I0
sg23
I68
sg24
I0
sbssg25
S' \xbdz\x0f:!\x1f\xf5\xd8\xdc7\t\xe1\xd3\x80R'
p120
ssS'_usr_local_lib_python2_7_dist-packages_django_contrib_auth_migrations___init__'
p121
(dp122
g6
(dp123
g8
S'_usr_local_lib_python2_7_dist-packages_django_contrib_auth_migrations___init__.html'
p124
sg10
S'/usr/local/lib/python2.7/dist-packages/django/contrib/auth/migrations/__init__'
p125
sg12
g13
(g14
g15
NtRp126
(dp127
g18
I1
sg19
I0
sg20
I0
sg21
I0
sg22
I0
sg23
I0
sg24
I0
sbssg25
S'\xca\xf5\x9f\x7f\x88\xdfa\x831|T\x1d\xbc}\xa5v'
p128
ssS'_usr_local_lib_python2_7_dist-packages_django_utils_lru_cache'
p129
(dp130
g6
(dp131
g8
S'_usr_local_lib_python2_7_dist-packages_django_utils_lru_cache.html'
p132
sg10
S'/usr/local/lib/python2.7/dist-packages/django/utils/lru_cache'
p133
sg12
g13
(g14
g15
NtRp134
(dp135
g18
I1
sg19
I0
sg20
I106
sg21
I0
sg22
I0
sg23
I19
sg24
I0
sbssg25
S'\xe1a\xe4\x88\x9c\x11\x0b%o\x06\x86\xbb\xf2\xf3+)'
p136
ssS'_usr_local_lib_python2_7_dist-packages_django_utils_version'
p137
(dp138
g6
(dp139
g8
S'_usr_local_lib_python2_7_dist-packages_django_utils_version.html'
p140
sg10
S'/usr/local/lib/python2.7/dist-packages/django/utils/version'
p141
sg12
g13
(g14
g15
NtRp142
(dp143
g18
I1
sg19
I0
sg20
I29
sg21
I0
sg22
I0
sg23
I15
sg24
I0
sbssg25
S'J-1Z\xb98\x042\xf7\xf3\xbdf\xfcf\x03\xc5'
p144
ssS'_usr_local_lib_python2_7_dist-packages_testtools_content'
p145
(dp146
S'index'
p147
(dp148
g105
S'_usr_local_lib_python2_7_dist-packages_testtools_content.html'
p149
sg107
S'/usr/local/lib/python2.7/dist-packages/testtools/content'
p150
sg109
g13
(g14
g15
NtRp151
(dp152
g18
I1
sg19
I0
sg20
I133
sg21
I0
sg22
I0
sg23
I95
sg24
I0
sbssS'hash'
p153
S'\xd1\xfa\r\xec\x9cR\xb3^\xc1\x1dH\xb4\x08\xe0\xfb\x9a'
p154
ssS'_usr_local_lib_python2_7_dist-packages_extras___init__'
p155
(dp156
g147
(dp157
g105
S'_usr_local_lib_python2_7_dist-packages_extras___init__.html'
p158
sg107
S'/usr/local/lib/python2.7/dist-packages/extras/__init__'
p159
sg109
g13
(g14
g15
NtRp160
(dp161
g18
I1
sg19
I0
sg20
I39
sg21
I0
sg22
I0
sg23
I8
sg24
I0
sbssg153
S'r\x07\xe2\xf0\xa8\xef\xb6\xf6\x11\xac)\xb2b\xa1\x8d\xde'
p162
ssS'_usr_local_lib_python2_7_dist-packages_django_utils_image'
p163
(dp164
g6
(dp165
g8
S'_usr_local_lib_python2_7_dist-packages_django_utils_image.html'
p166
sg10
S'/usr/local/lib/python2.7/dist-packages/django/utils/image'
p167
sg12
g13
(g14
g15
NtRp168
(dp169
g18
I1
sg19
I0
sg20
I38
sg21
I0
sg22
I0
sg23
I18
sg24
I0
sbssg25
S'\xbf\xa4\\\xd8\x98O\x18\xb7\xbap\x07\x8dD\xce\x12B'
p170
ssS'_usr_local_lib_python2_7_dist-packages_django_contrib_auth_backends'
p171
(dp172
g6
(dp173
g8
S'_usr_local_lib_python2_7_dist-packages_django_contrib_auth_backends.html'
p174
sg10
S'/usr/local/lib/python2.7/dist-packages/django/contrib/auth/backends'
p175
sg12
g13
(g14
g15
NtRp176
(dp177
g18
I1
sg19
I0
sg20
I71
sg21
I0
sg22
I0
sg23
I47
sg24
I0
sbssg25
S'WZTz\xb0{\xcf\xbe\xca\xdf\xea\xd2,kEf'
p178
ssS'_usr_local_lib_python2_7_dist-packages_testtools_testsuite'
p179
(dp180
g147
(dp181
g105
S'_usr_local_lib_python2_7_dist-packages_testtools_testsuite.html'
p182
sg107
S'/usr/local/lib/python2.7/dist-packages/testtools/testsuite'
p183
sg109
g13
(g14
g15
NtRp184
(dp185
g18
I1
sg19
I0
sg20
I144
sg21
I0
sg22
I0
sg23
I117
sg24
I0
sbssg153
S'\x82cb2\xf0\xd1\xe2\x94\x18y\x85\xca\xdb\x98\xff\xb6'
p186
ssS'_usr_local_lib_python2_7_dist-packages_django_db_migrations_questioner'
p187
(dp188
g6
(dp189
g8
S'_usr_local_lib_python2_7_dist-packages_django_db_migrations_questioner.html'
p190
sg10
S'/usr/local/lib/python2.7/dist-packages/django/db/migrations/questioner'
p191
sg12
g13
(g14
g15
NtRp192
(dp193
g18
I1
sg19
I0
sg20
I101
sg21
I0
sg22
I0
sg23
I75
sg24
I0
sbssg25
S"\xabs)\xd4'\xe2U\x944u\xee\x08T[\xc2X"
p194
ssS'_usr_local_lib_python2_7_dist-packages_django_utils_html'
p195
(dp196
g6
(dp197
g70
S'_usr_local_lib_python2_7_dist-packages_django_utils_html.html'
p198
sg72
S'/usr/local/lib/python2.7/dist-packages/django/utils/html'
p199
sg74
g13
(g14
g15
NtRp200
(dp201
g18
I1
sg19
I0
sg20
I186
sg21
I0
sg22
I0
sg23
I121
sg24
I0
sbssg25
S'3Zjii\x8f\xbdo&\xb1\xfe\xd7\xd0\xf5\xf1\xf8'
p202
ssS'_usr_local_lib_python2_7_dist-packages_django_contrib_sessions_migrations___init__'
p203
(dp204
g6
(dp205
g8
S'_usr_local_lib_python2_7_dist-packages_django_contrib_sessions_migrations___init__.html'
p206
sg10
S'/usr/local/lib/python2.7/dist-packages/django/contrib/sessions/migrations/__init__'
p207
sg12
g13
(g14
g15
NtRp208
(dp209
g18
I1
sg19
I0
sg20
I0
sg21
I0
sg22
I0
sg23
I0
sg24
I0
sbssg25
S'\xca\xf5\x9f\x7f\x88\xdfa\x831|T\x1d\xbc}\xa5v'
p210
ssS'_usr_local_lib_python2_7_dist-packages_pytz_lazy'
p211
(dp212
g6
(dp213
g8
S'_usr_local_lib_python2_7_dist-packages_pytz_lazy.html'
p214
sg10
S'/usr/local/lib/python2.7/dist-packages/pytz/lazy'
p215
sg12
g13
(g14
g15
NtRp216
(dp217
g18
I1
sg19
I0
sg20
I97
sg21
I0
sg22
I0
sg23
I39
sg24
I0
sbssg25
S'\x058\xdf\x83Dk\x8b+\xcc\xd5\x9f\x84 ra\x8a'
p218
ssS'_usr_local_lib_python2_7_dist-packages_django_contrib_auth_views'
p219
(dp220
S'index'
p221
(dp222
g70
S'_usr_local_lib_python2_7_dist-packages_django_contrib_auth_views.html'
p223
sg72
S'/usr/local/lib/python2.7/dist-packages/django/contrib/auth/views'
p224
sg74
g13
(g14
g15
NtRp225
(dp226
g18
I1
sg19
I0
sg20
I143
sg21
I0
sg22
I0
sg23
I100
sg24
I0
sbssS'hash'
p227
S'\xbbbc\xa3\x0c[KR9\xff\x93\xc8\xe9?A\xe0'
p228
ssS'_usr_local_lib_python2_7_dist-packages_django_contrib_contenttypes___init__'
p229
(dp230
g6
(dp231
g8
S'_usr_local_lib_python2_7_dist-packages_django_contrib_contenttypes___init__.html'
p232
sg10
S'/usr/local/lib/python2.7/dist-packages/django/contrib/contenttypes/__init__'
p233
sg12
g13
(g14
g15
NtRp234
(dp235
g18
I1
sg19
I0
sg20
I1
sg21
I0
sg22
I0
sg23
I0
sg24
I0
sbssg25
S'"#\xe0P\xa1Rc{e<\xf5\x9e\x04\x96"N'
p236
ssS'_usr_local_lib_python2_7_dist-packages_django_utils_decorators'
p237
(dp238
g6
(dp239
g8
S'_usr_local_lib_python2_7_dist-packages_django_utils_decorators.html'
p240
sg10
S'/usr/local/lib/python2.7/dist-packages/django/utils/decorators'
p241
sg12
g13
(g14
g15
NtRp242
(dp243
g18
I1
sg19
I0
sg20
I64
sg21
I0
sg22
I0
sg23
I35
sg24
I0
sbssg25
S'\xda\x1a\xa8).\xff\x03u\xfaq\xfc\x8ci\xe2\xeb+'
p244
ssS'_usr_local_lib_python2_7_dist-packages_django_core_checks_messages'
p245
(dp246
g6
(dp247
g8
S'_usr_local_lib_python2_7_dist-packages_django_core_checks_messages.html'
p248
sg10
S'/usr/local/lib/python2.7/dist-packages/django/core/checks/messages'
p249
sg12
g13
(g14
g15
NtRp250
(dp251
g18
I1
sg19
I0
sg20
I54
sg21
I0
sg22
I0
sg23
I28
sg24
I0
sbssg25
S'\x95\xad\x93\x81\x8ez[\x9c\x97\xa8\x12+!\xb9(K'
p252
ssS'_usr_local_lib_python2_7_dist-packages_django_db_migrations_recorder'
p253
(dp254
g6
(dp255
g8
S'_usr_local_lib_python2_7_dist-packages_django_db_migrations_recorder.html'
p256
sg10
S'/usr/local/lib/python2.7/dist-packages/django/db/migrations/recorder'
p257
sg12
g13
(g14
g15
NtRp258
(dp259
g18
I1
sg19
I0
sg20
I37
sg21
I0
sg22
I0
sg23
I4
sg24
I0
sbssg25
S'\x85\xa4PB\x15\xf3\xad\xdf\xe7w\x17\xf2{S\x8c\xce'
p260
ssS'_usr_local_lib_python2_7_dist-packages_django_utils_numberformat'
p261
(dp262
g6
(dp263
g8
S'_usr_local_lib_python2_7_dist-packages_django_utils_numberformat.html'
p264
sg10
S'/usr/local/lib/python2.7/dist-packages/django/utils/numberformat'
p265
sg12
g13
(g14
g15
NtRp266
(dp267
g18
I1
sg19
I0
sg20
I31
sg21
I0
sg22
I0
sg23
I22
sg24
I0
sbssg25
S'4)(\xd0\x08\xf9\xea \x8f\xe6\xc4r2\xe2\xdc\xf1'
p268
ssS'_usr_local_lib_python2_7_dist-packages_testtools_matchers__exception'
p269
(dp270
g147
(dp271
g105
S'_usr_local_lib_python2_7_dist-packages_testtools_matchers__exception.html'
p272
sg107
S'/usr/local/lib/python2.7/dist-packages/testtools/matchers/_exception'
p273
sg109
g13
(g14
g15
NtRp274
(dp275
g18
I1
sg19
I0
sg20
I61
sg21
I0
sg22
I0
sg23
I43
sg24
I0
sbssg153
S'H\xaf\xcbs\xe7-\xf1\xa1\x16\x9a\xdc\xec\x1f\t\x8f2'
p276
ssS'_usr_local_lib_python2_7_dist-packages_subunit_chunked'
p277
(dp278
g147
(dp279
g105
S'_usr_local_lib_python2_7_dist-packages_subunit_chunked.html'
p280
sg107
S'/usr/local/lib/python2.7/dist-packages/subunit/chunked'
p281
sg109
g13
(g14
g15
NtRp282
(dp283
g18
I1
sg19
I0
sg20
I101
sg21
I0
sg22
I0
sg23
I86
sg24
I0
sbssg153
S'/\x03\x98\xe6\xf2\x18\x15\x17\xee\xe7\x02C%\xa8\x99\x91'
p284
ssS'_usr_local_lib_python2_7_dist-packages_django_contrib_auth___init__'
p285
(dp286
g6
(dp287
S'html_filename'
p288
S'_usr_local_lib_python2_7_dist-packages_django_contrib_auth___init__.html'
p289
sS'name'
p290
S'/usr/local/lib/python2.7/dist-packages/django/contrib/auth/__init__'
p291
sS'nums'
p292
g13
(g14
g15
NtRp293
(dp294
g18
I1
sg19
I0
sg20
I98
sg21
I0
sg22
I0
sg23
I23
sg24
I0
sbssg25
S'T\xb6=\xbc\xde\x0f\x96\x1eFP\tX\xcd\xf0\xeb\x80'
p295
ssS'_usr_local_lib_python2_7_dist-packages_lettuce_strings'
p296
(dp297
g147
(dp298
g105
S'_usr_local_lib_python2_7_dist-packages_lettuce_strings.html'
p299
sg107
S'/usr/local/lib/python2.7/dist-packages/lettuce/strings'
p300
sg109
g13
(g14
g15
NtRp301
(dp302
g18
I1
sg19
I0
sg20
I181
sg21
I0
sg22
I0
sg23
I164
sg24
I0
sbssg153
S'2\t\x85\xde\xeb\xfd\xe1P\xd7\xe4d\x0f\xdb<+~'
p303
ssS'_usr_local_lib_python2_7_dist-packages_django_contrib_sessions_migrations_0001_initial'
p304
(dp305
g6
(dp306
g8
S'_usr_local_lib_python2_7_dist-packages_django_contrib_sessions_migrations_0001_initial.html'
p307
sg10
S'/usr/local/lib/python2.7/dist-packages/django/contrib/sessions/migrations/0001_initial'
p308
sg12
g13
(g14
g15
NtRp309
(dp310
g18
I1
sg19
I0
sg20
I5
sg21
I0
sg22
I0
sg23
I0
sg24
I0
sbssg25
S'\x10\n\xc7|\xbbZ\xf3*s%\x91\x7f\xa7\xc4n\xb8'
p311
ssS'_usr_local_lib_python2_7_dist-packages_django_utils_tree'
p312
(dp313
g6
(dp314
g8
S'_usr_local_lib_python2_7_dist-packages_django_utils_tree.html'
p315
sg10
S'/usr/local/lib/python2.7/dist-packages/django/utils/tree'
p316
sg12
g13
(g14
g15
NtRp317
(dp318
g18
I1
sg19
I0
sg20
I50
sg21
I0
sg22
I0
sg23
I18
sg24
I0
sbssg25
S'H\x06\xa5-Vx\xb5\x98;\x1a\x03\x1c3\xf7\xa9\xa1'
p319
ssS'cse360_webapp_urls'
p320
(dp321
g6
(dp322
g8
S'cse360_webapp_urls.html'
p323
sg10
S'cse360_webapp/urls'
p324
sg12
g13
(g14
g15
NtRp325
(dp326
g18
I1
sg19
I0
sg20
I9
sg21
I0
sg22
I0
sg23
I0
sg24
I0
sbssg25
S'\xc8oF\x07x\xf0\xfe\x81!)\x84\x02\xe1\xa2M\x04'
p327
ssS'_usr_local_lib_python2_7_dist-packages_django_template_loaders___init__'
p328
(dp329
g6
(dp330
g8
S'_usr_local_lib_python2_7_dist-packages_django_template_loaders___init__.html'
p331
sg10
S'/usr/local/lib/python2.7/dist-packages/django/template/loaders/__init__'
p332
sg12
g13
(g14
g15
NtRp333
(dp334
g18
I1
sg19
I0
sg20
I0
sg21
I0
sg22
I0
sg23
I0
sg24
I0
sbssg25
S'\xca\xf5\x9f\x7f\x88\xdfa\x831|T\x1d\xbc}\xa5v'
p335
ssS'_usr_local_lib_python2_7_dist-packages_django_db_models_fields_files'
p336
(dp337
g6
(dp338
g8
S'_usr_local_lib_python2_7_dist-packages_django_db_models_fields_files.html'
p339
sg10
S'/usr/local/lib/python2.7/dist-packages/django/db/models/fields/files'
p340
sg12
g13
(g14
g15
NtRp341
(dp342
g18
I1
sg19
I0
sg20
I247
sg21
I0
sg22
I0
sg23
I92
sg24
I0
sbssg25
S'\xb2\xdc\xb6C&\xe8\x13\xb3\x86\xb3\x1a\x91R\xcc\x8f\xa2'
p343
ssS'_usr_local_lib_python2_7_dist-packages_subunit___init__'
p344
(dp345
g147
(dp346
g105
S'_usr_local_lib_python2_7_dist-packages_subunit___init__.html'
p347
sg107
S'/usr/local/lib/python2.7/dist-packages/subunit/__init__'
p348
sg109
g13
(g14
g15
NtRp349
(dp350
g18
I1
sg19
I0
sg20
I638
sg21
I0
sg22
I0
sg23
I481
sg24
I0
sbssg153
S'\xbb\x11#\xc6\xb5/$\xb1#\xc59q?\xb23\xeb'
p351
ssS'_usr_local_lib_python2_7_dist-packages_django_test_runner'
p352
(dp353
g6
(dp354
g70
S'_usr_local_lib_python2_7_dist-packages_django_test_runner.html'
p355
sg72
S'/usr/local/lib/python2.7/dist-packages/django/test/runner'
p356
sg74
g13
(g14
g15
NtRp357
(dp358
g18
I1
sg19
I0
sg20
I163
sg21
I0
sg22
I0
sg23
I20
sg24
I0
sbssg25
S'?\x85\xb1\xc3\xf4\x109\xf7\x08\xb8\xac\x88\x19\x13\xccH'
p359
ssS'_usr_local_lib_python2_7_dist-packages_django_db_migrations_executor'
p360
(dp361
g6
(dp362
g8
S'_usr_local_lib_python2_7_dist-packages_django_db_migrations_executor.html'
p363
sg10
S'/usr/local/lib/python2.7/dist-packages/django/db/migrations/executor'
p364
sg12
g13
(g14
g15
NtRp365
(dp366
g18
I1
sg19
I0
sg20
I94
sg21
I0
sg22
I0
sg23
I39
sg24
I0
sbssg25
S'2\x80+\xeeI)U\x0e3\xd9\xf9=\x8e\x19\xd8\xf1'
p367
ssS'_usr_local_lib_python2_7_dist-packages_django_utils_crypto'
p368
(dp369
g6
(dp370
g8
S'_usr_local_lib_python2_7_dist-packages_django_utils_crypto.html'
p371
sg10
S'/usr/local/lib/python2.7/dist-packages/django/utils/crypto'
p372
sg12
g13
(g14
g15
NtRp373
(dp374
g18
I1
sg19
I0
sg20
I75
sg21
I0
sg22
I0
sg23
I11
sg24
I0
sbssg25
S'Um\xe4\xbf\x83\xb7L\x05~27\x83\xf6\xdaEp'
p375
ssS'_usr_local_lib_python2_7_dist-packages_testtools_matchers__doctest'
p376
(dp377
g147
(dp378
g105
S'_usr_local_lib_python2_7_dist-packages_testtools_matchers__doctest.html'
p379
sg107
S'/usr/local/lib/python2.7/dist-packages/testtools/matchers/_doctest'
p380
sg109
g13
(g14
g15
NtRp381
(dp382
g18
I1
sg19
I0
sg20
I50
sg21
I0
sg22
I0
sg23
I26
sg24
I0
sbssg153
S'\x85\x98\xbf\x86\x9f\xaeO}cC\x19\x17 j\xa3\xdb'
p383
ssS'_usr_local_lib_python2_7_dist-packages_fuzzywuzzy_utils'
p384
(dp385
g147
(dp386
g105
S'_usr_local_lib_python2_7_dist-packages_fuzzywuzzy_utils.html'
p387
sg107
S'/usr/local/lib/python2.7/dist-packages/fuzzywuzzy/utils'
p388
sg109
g13
(g14
g15
NtRp389
(dp390
g18
I1
sg19
I0
sg20
I43
sg21
I0
sg22
I0
sg23
I29
sg24
I0
sbssg153
S"4}\x88\x17\xc0\x04\xb5\x8dt\xa1\xd6\xf4\x10\xe5']"
p391
ssS'_usr_local_lib_python2_7_dist-packages_django_contrib_admin_templatetags_admin_static'
p392
(dp393
g6
(dp394
g8
S'_usr_local_lib_python2_7_dist-packages_django_contrib_admin_templatetags_admin_static.html'
p395
sg10
S'/usr/local/lib/python2.7/dist-packages/django/contrib/admin/templatetags/admin_static'
p396
sg12
g13
(g14
g15
NtRp397
(dp398
g18
I1
sg19
I0
sg20
I10
sg21
I0
sg22
I0
sg23
I5
sg24
I0
sbssg25
S'\x98M\x80^\x84\xdd\xa3\xcf\x85\x10\x1b*\xb6\xd9\xed\x12'
p399
ssS'_usr_local_lib_python2_7_dist-packages_django_conf_urls___init__'
p400
(dp401
g6
(dp402
g8
S'_usr_local_lib_python2_7_dist-packages_django_conf_urls___init__.html'
p403
sg10
S'/usr/local/lib/python2.7/dist-packages/django/conf/urls/__init__'
p404
sg12
g13
(g14
g15
NtRp405
(dp406
g18
I1
sg19
I0
sg20
I42
sg21
I0
sg22
I0
sg23
I4
sg24
I0
sbssg25
S'\x13\x81 5\x15\x0fG\x08O:\xd3\x0el\xe70\xf9'
p407
ssS'_usr_local_lib_python2_7_dist-packages_django_utils_html_parser'
p408
(dp409
g6
(dp410
g8
S'_usr_local_lib_python2_7_dist-packages_django_utils_html_parser.html'
p411
sg10
S'/usr/local/lib/python2.7/dist-packages/django/utils/html_parser'
p412
sg12
g13
(g14
g15
NtRp413
(dp414
g18
I1
sg19
I0
sg20
I86
sg21
I0
sg22
I0
sg23
I77
sg24
I0
sbssg25
S'p\x94\x8f!\xe5`\x89\x10\xf8R\xf2\xd7@~\xc1\xc9'
p415
ssS'_usr_local_lib_python2_7_dist-packages_django_db_models_manager'
p416
(dp417
g6
(dp418
g8
S'_usr_local_lib_python2_7_dist-packages_django_db_models_manager.html'
p419
sg10
S'/usr/local/lib/python2.7/dist-packages/django/db/models/manager'
p420
sg12
g13
(g14
g15
NtRp421
(dp422
g18
I1
sg19
I0
sg20
I137
sg21
I0
sg22
I0
sg23
I18
sg24
I0
sbssg25
S'\x95;2G:o\x1fL\x96\x83F\xc7\x17y}\xc4'
p423
ssS'manage'
p424
(dp425
g6
(dp426
g8
S'manage.html'
p427
sg10
g424
sg12
g13
(g14
g15
NtRp428
(dp429
g18
I1
sg19
I0
sg20
I6
sg21
I0
sg22
I0
sg23
I0
sg24
I0
sbssg25
S'\xd8A\x0f\xa9q\\\xc3\xb1\x03GH\xdeVwv\xe5'
p430
ssS'_usr_local_lib_python2_7_dist-packages_pytz_exceptions'
p431
(dp432
g6
(dp433
g8
S'_usr_local_lib_python2_7_dist-packages_pytz_exceptions.html'
p434
sg10
S'/usr/local/lib/python2.7/dist-packages/pytz/exceptions'
p435
sg12
g13
(g14
g15
NtRp436
(dp437
g18
I1
sg19
I0
sg20
I6
sg21
I0
sg22
I0
sg23
I0
sg24
I0
sbssg25
S'\xb1z\nA\xebV\xdewl2\xcd\xec\xd1\xf4\xf1g'
p438
ssS'_usr_local_lib_python2_7_dist-packages_django_test___init__'
p439
(dp440
g6
(dp441
g8
S'_usr_local_lib_python2_7_dist-packages_django_test___init__.html'
p442
sg10
S'/usr/local/lib/python2.7/dist-packages/django/test/__init__'
p443
sg12
g13
(g14
g15
NtRp444
(dp445
g18
I1
sg19
I0
sg20
I4
sg21
I0
sg22
I0
sg23
I0
sg24
I0
sbssg25
S'\xba/\x8e\xd7\x9b\xd2\xd7D\x00\x91?\x10\x97T\xcf\x18'
p446
ssS'_usr_local_lib_python2_7_dist-packages_django_template_loaders_filesystem'
p447
(dp448
g6
(dp449
g8
S'_usr_local_lib_python2_7_dist-packages_django_template_loaders_filesystem.html'
p450
sg10
S'/usr/local/lib/python2.7/dist-packages/django/template/loaders/filesystem'
p451
sg12
g13
(g14
g15
NtRp452
(dp453
g18
I1
sg19
I0
sg20
I29
sg21
I0
sg22
I0
sg23
I8
sg24
I0
sbssg25
S'\x8a[)\xb0vXvFrp=\n\xa2\xc3\xb4\x13'
p454
ssS'_usr_local_lib_python2_7_dist-packages_django_contrib_messages_storage___init__'
p455
(dp456
g6
(dp457
g8
S'_usr_local_lib_python2_7_dist-packages_django_contrib_messages_storage___init__.html'
p458
sg10
S'/usr/local/lib/python2.7/dist-packages/django/contrib/messages/storage/__init__'
p459
sg12
g13
(g14
g15
NtRp460
(dp461
g18
I1
sg19
I0
sg20
I4
sg21
I0
sg22
I0
sg23
I0
sg24
I0
sbssg25
S'\x1b\xd4\xf4I\xe8\x15\xcc\xd9Y+R}g\xbb;\x9d'
p462
ssS'cse360_webapp___init__'
p463
(dp464
g6
(dp465
g8
S'cse360_webapp___init__.html'
p466
sg10
S'cse360_webapp/__init__'
p467
sg12
g13
(g14
g15
NtRp468
(dp469
g18
I1
sg19
I0
sg20
I0
sg21
I0
sg22
I0
sg23
I0
sg24
I0
sbssg25
S'\xca\xf5\x9f\x7f\x88\xdfa\x831|T\x1d\xbc}\xa5v'
p470
ssS'_usr_local_lib_python2_7_dist-packages_django_contrib_contenttypes_views'
p471
(dp472
g6
(dp473
g8
S'_usr_local_lib_python2_7_dist-packages_django_contrib_contenttypes_views.html'
p474
sg10
S'/usr/local/lib/python2.7/dist-packages/django/contrib/contenttypes/views'
p475
sg12
g13
(g14
g15
NtRp476
(dp477
g18
I1
sg19
I0
sg20
I53
sg21
I0
sg22
I0
sg23
I45
sg24
I0
sbssg25
S'\x0bH\xab\x1e\xb3\xd0\xb0&\xe9F\xe7\xb2q\xe2>\xa3'
p478
ssS'_usr_local_lib_python2_7_dist-packages_testtools_testresult___init__'
p479
(dp480
g147
(dp481
g105
S'_usr_local_lib_python2_7_dist-packages_testtools_testresult___init__.html'
p482
sg107
S'/usr/local/lib/python2.7/dist-packages/testtools/testresult/__init__'
p483
sg109
g13
(g14
g15
NtRp484
(dp485
g18
I1
sg19
I0
sg20
I3
sg21
I0
sg22
I0
sg23
I0
sg24
I0
sbssg153
S'\x81\x03\xd9\xb0O\x86\xfd\xc0\xf3f\xea\xb2XA\x9a\xf5'
p486
ssS'_usr_local_lib_python2_7_dist-packages_django_dispatch_dispatcher'
p487
(dp488
g6
(dp489
g8
S'_usr_local_lib_python2_7_dist-packages_django_dispatch_dispatcher.html'
p490
sg10
S'/usr/local/lib/python2.7/dist-packages/django/dispatch/dispatcher'
p491
sg12
g13
(g14
g15
NtRp492
(dp493
g18
I1
sg19
I0
sg20
I135
sg21
I0
sg22
I0
sg23
I24
sg24
I0
sbssg25
S'v\x1dv\x1e\x95\xc1\xeb#S_\x89\xa2.\x7f`\xf1'
p494
ssS'_usr_local_lib_python2_7_dist-packages_django_utils_timesince'
p495
(dp496
g6
(dp497
g8
S'_usr_local_lib_python2_7_dist-packages_django_utils_timesince.html'
p498
sg10
S'/usr/local/lib/python2.7/dist-packages/django/utils/timesince'
p499
sg12
g13
(g14
g15
NtRp500
(dp501
g18
I1
sg19
I0
sg20
I30
sg21
I0
sg22
I0
sg23
I23
sg24
I0
sbssg25
S'\xea\x9f\xdaYp\xa9#\xe8\xa5\xa7\xf2\xd1\xb8\x06\xcc%'
p502
ssS'_usr_local_lib_python2_7_dist-packages_django_db_migrations_operations___init__'
p503
(dp504
g6
(dp505
g8
S'_usr_local_lib_python2_7_dist-packages_django_db_migrations_operations___init__.html'
p506
sg10
S'/usr/local/lib/python2.7/dist-packages/django/db/migrations/operations/__init__'
p507
sg12
g13
(g14
g15
NtRp508
(dp509
g18
I1
sg19
I0
sg20
I4
sg21
I0
sg22
I0
sg23
I0
sg24
I0
sbssg25
S'\x80!\xfc?\xf5\xe6\xab)\xd4\xad8\x02\x86s\x0f<'
p510
ssS'_usr_local_lib_python2_7_dist-packages_django_contrib_contenttypes_admin'
p511
(dp512
g6
(dp513
g8
S'_usr_local_lib_python2_7_dist-packages_django_contrib_contenttypes_admin.html'
p514
sg10
S'/usr/local/lib/python2.7/dist-packages/django/contrib/contenttypes/admin'
p515
sg12
g13
(g14
g15
NtRp516
(dp517
g18
I1
sg19
I0
sg20
I55
sg21
I0
sg22
I0
sg23
I32
sg24
I0
sbssg25
S'\x16-w"3\xd9R\x0f\xcd7aC\xc3\xf4\xb8R'
p518
ssS'_usr_local_lib_python2_7_dist-packages_django_dispatch___init__'
p519
(dp520
g6
(dp521
g8
S'_usr_local_lib_python2_7_dist-packages_django_dispatch___init__.html'
p522
sg10
S'/usr/local/lib/python2.7/dist-packages/django/dispatch/__init__'
p523
sg12
g13
(g14
g15
NtRp524
(dp525
g18
I1
sg19
I0
sg20
I1
sg21
I0
sg22
I0
sg23
I0
sg24
I0
sbssg25
S'D\x18\xd9\x97? \x11\xf4^{\xf6U\x0e\xef\x7fZ'
p526
ssS'_usr_local_lib_python2_7_dist-packages_unittest2_collector'
p527
(dp528
g147
(dp529
g105
S'_usr_local_lib_python2_7_dist-packages_unittest2_collector.html'
p530
sg107
S'/usr/local/lib/python2.7/dist-packages/unittest2/collector'
p531
sg109
g13
(g14
g15
NtRp532
(dp533
g18
I1
sg19
I0
sg20
I7
sg21
I0
sg22
I0
sg23
I3
sg24
I0
sbssg153
S'"\x8c\x87\xc5\x19s\xfe7 \x93\x0e\x1c\x08\x95\x08\xc3'
p534
ssS'_usr_local_lib_python2_7_dist-packages_testtools_run'
p535
(dp536
g147
(dp537
g105
S'_usr_local_lib_python2_7_dist-packages_testtools_run.html'
p538
sg107
S'/usr/local/lib/python2.7/dist-packages/testtools/run'
p539
sg109
g13
(g14
g15
NtRp540
(dp541
g18
I1
sg19
I0
sg20
I136
sg21
I0
sg22
I0
sg23
I101
sg24
I0
sbssg153
S"\x7f&iS\x9c\x13eG\xf1'4\xf92w\xde\xe3"
p542
ssS'_usr_local_lib_python2_7_dist-packages_django_contrib_contenttypes_apps'
p543
(dp544
g6
(dp545
g8
S'_usr_local_lib_python2_7_dist-packages_django_contrib_contenttypes_apps.html'
p546
sg10
S'/usr/local/lib/python2.7/dist-packages/django/contrib/contenttypes/apps'
p547
sg12
g13
(g14
g15
NtRp548
(dp549
g18
I1
sg19
I0
sg20
I9
sg21
I0
sg22
I0
sg23
I0
sg24
I0
sbssg25
S'J\xbf,\xb6\x0e~K\n\xadl\xf0\xb6\xb1d:\x0f'
p550
ssS'_usr_local_lib_python2_7_dist-packages_django_core_management_sql'
p551
(dp552
g6
(dp553
g8
S'_usr_local_lib_python2_7_dist-packages_django_core_management_sql.html'
p554
sg10
S'/usr/local/lib/python2.7/dist-packages/django/core/management/sql'
p555
sg12
g13
(g14
g15
NtRp556
(dp557
g18
I1
sg19
I0
sg20
I152
sg21
I0
sg22
I0
sg23
I119
sg24
I0
sbssg25
S'\x92\x18{\xc9\xe9\x91q\xbb *N\r\x96O\xaeA'
p558
ssS'_usr_local_lib_python2_7_dist-packages_django_views_decorators_cache'
p559
(dp560
g6
(dp561
g8
S'_usr_local_lib_python2_7_dist-packages_django_views_decorators_cache.html'
p562
sg10
S'/usr/local/lib/python2.7/dist-packages/django/views/decorators/cache'
p563
sg12
g13
(g14
g15
NtRp564
(dp565
g18
I1
sg19
I0
sg20
I27
sg21
I0
sg22
I0
sg23
I18
sg24
I0
sbssg25
S'\x0f\xeb*^\xc3\xf7I\xc49Y\xaed\xdf9\xac0'
p566
ssS'_usr_local_lib_python2_7_dist-packages_django_forms___init__'
p567
(dp568
g6
(dp569
g8
S'_usr_local_lib_python2_7_dist-packages_django_forms___init__.html'
p570
sg10
S'/usr/local/lib/python2.7/dist-packages/django/forms/__init__'
p571
sg12
g13
(g14
g15
NtRp572
(dp573
g18
I1
sg19
I0
sg20
I6
sg21
I0
sg22
I0
sg23
I0
sg24
I0
sbssg25
S'\xd9\x11j\xf9_X\x911mp\xbe\xe8s^\x8f\x84'
p574
ssS'_usr_local_lib_python2_7_dist-packages_django_db_models_related'
p575
(dp576
g6
(dp577
g8
S'_usr_local_lib_python2_7_dist-packages_django_db_models_related.html'
p578
sg10
S'/usr/local/lib/python2.7/dist-packages/django/db/models/related'
p579
sg12
g13
(g14
g15
NtRp580
(dp581
g18
I1
sg19
I0
sg20
I35
sg21
I0
sg22
I0
sg23
I11
sg24
I0
sbssg25
S"\x01\xf2x\xc4~\xb9'\x90\xbb\x13O\x8f(\x90\xb2\xf3"
p582
ssS'app1___init__'
p583
(dp584
g6
(dp585
g8
S'app1___init__.html'
p586
sg10
S'app1/__init__'
p587
sg12
g13
(g14
g15
NtRp588
(dp589
g18
I1
sg19
I0
sg20
I0
sg21
I0
sg22
I0
sg23
I0
sg24
I0
sbssg25
S'\xca\xf5\x9f\x7f\x88\xdfa\x831|T\x1d\xbc}\xa5v'
p590
ssS'_usr_local_lib_python2_7_dist-packages_django_contrib_contenttypes_forms'
p591
(dp592
g6
(dp593
g8
S'_usr_local_lib_python2_7_dist-packages_django_contrib_contenttypes_forms.html'
p594
sg10
S'/usr/local/lib/python2.7/dist-packages/django/contrib/contenttypes/forms'
p595
sg12
g13
(g14
g15
NtRp596
(dp597
g18
I1
sg19
I0
sg20
I38
sg21
I0
sg22
I0
sg23
I28
sg24
I0
sbssg25
S'\xea!\xe4\x98\x17H\x12W\x8ej\xf7\x02\xa67\xbf\x1f'
p598
ssS'_usr_local_lib_python2_7_dist-packages_django_contrib_auth_tokens'
p599
(dp600
g6
(dp601
g8
S'_usr_local_lib_python2_7_dist-packages_django_contrib_auth_tokens.html'
p602
sg10
S'/usr/local/lib/python2.7/dist-packages/django/contrib/auth/tokens'
p603
sg12
g13
(g14
g15
NtRp604
(dp605
g18
I1
sg19
I0
sg20
I34
sg21
I0
sg22
I0
sg23
I22
sg24
I0
sbssg25
S'\x835\x03\xf2\xc5\xc6\x97\x80%R\x92dm\xef\xba\xa5'
p606
ssS'_usr_local_lib_python2_7_dist-packages_django_contrib_messages_api'
p607
(dp608
g6
(dp609
g8
S'_usr_local_lib_python2_7_dist-packages_django_contrib_messages_api.html'
p610
sg10
S'/usr/local/lib/python2.7/dist-packages/django/contrib/messages/api'
p611
sg12
g13
(g14
g15
NtRp612
(dp613
g18
I1
sg19
I0
sg20
I37
sg21
I0
sg22
I0
sg23
I22
sg24
I0
sbssg25
S'\xec\x0f\xcf\xdc\xaf\x19\x7f]\x05RjO\x0et\x04\x8f'
p614
ssS'_usr_local_lib_python2_7_dist-packages_django_core___init__'
p615
(dp616
g6
(dp617
g8
S'_usr_local_lib_python2_7_dist-packages_django_core___init__.html'
p618
sg10
S'/usr/local/lib/python2.7/dist-packages/django/core/__init__'
p619
sg12
g13
(g14
g15
NtRp620
(dp621
g18
I1
sg19
I0
sg20
I0
sg21
I0
sg22
I0
sg23
I0
sg24
I0
sbssg25
S'\xca\xf5\x9f\x7f\x88\xdfa\x831|T\x1d\xbc}\xa5v'
p622
ssS'_usr_local_lib_python2_7_dist-packages_django_template_loader_tags'
p623
(dp624
g6
(dp625
g70
S'_usr_local_lib_python2_7_dist-packages_django_template_loader_tags.html'
p626
sg72
S'/usr/local/lib/python2.7/dist-packages/django/template/loader_tags'
p627
sg74
g13
(g14
g15
NtRp628
(dp629
g18
I1
sg19
I0
sg20
I153
sg21
I0
sg22
I0
sg23
I60
sg24
I0
sbssg25
S'>\xa1\xd4hy\xd2q\xd1DcE|\xb0\xda\x18\x9e'
p630
ssS'_usr_local_lib_python2_7_dist-packages_django_db_models_query_utils'
p631
(dp632
g6
(dp633
g8
S'_usr_local_lib_python2_7_dist-packages_django_db_models_query_utils.html'
p634
sg10
S'/usr/local/lib/python2.7/dist-packages/django/db/models/query_utils'
p635
sg12
g13
(g14
g15
NtRp636
(dp637
g18
I1
sg19
I0
sg20
I104
sg21
I0
sg22
I0
sg23
I71
sg24
I0
sbssg25
S'/4\x9bP\x11\xe7\x97_\x06\x99\x91\xc0\x12\x12A\xab'
p638
ssS'_usr_local_lib_python2_7_dist-packages_django_contrib_auth_signals'
p639
(dp640
g6
(dp641
g8
S'_usr_local_lib_python2_7_dist-packages_django_contrib_auth_signals.html'
p642
sg10
S'/usr/local/lib/python2.7/dist-packages/django/contrib/auth/signals'
p643
sg12
g13
(g14
g15
NtRp644
(dp645
g18
I1
sg19
I0
sg20
I4
sg21
I0
sg22
I0
sg23
I0
sg24
I0
sbssg25
S'\x89\x9c\xaa;\xc3\xa0\x92\xe0\x14HX\x86\x17\\\xf6z'
p646
ssS'_usr_local_lib_python2_7_dist-packages_django_contrib_auth_middleware'
p647
(dp648
g6
(dp649
g8
S'_usr_local_lib_python2_7_dist-packages_django_contrib_auth_middleware.html'
p650
sg10
S'/usr/local/lib/python2.7/dist-packages/django/contrib/auth/middleware'
p651
sg12
g13
(g14
g15
NtRp652
(dp653
g18
I1
sg19
I0
sg20
I56
sg21
I0
sg22
I0
sg23
I30
sg24
I0
sbssg25
S'l\xab*\x93\x00\xd3\xc7a\x00\xec\xaf(\xa2\xff\xe9\x9f'
p654
ssS'_usr_local_lib_python2_7_dist-packages_django_db_models_base'
p655
(dp656
g6
(dp657
g70
S'_usr_local_lib_python2_7_dist-packages_django_db_models_base.html'
p658
sg72
S'/usr/local/lib/python2.7/dist-packages/django/db/models/base'
p659
sg74
g13
(g14
g15
NtRp660
(dp661
g18
I1
sg19
I0
sg20
I730
sg21
I0
sg22
I0
sg23
I293
sg24
I0
sbssg25
S'\xac\x83@~\\6v.PR\xa8\xf3\xf6x@~'
p662
ssS'_usr_local_lib_python2_7_dist-packages_fuzzywuzzy___init__'
p663
(dp664
g147
(dp665
g105
S'_usr_local_lib_python2_7_dist-packages_fuzzywuzzy___init__.html'
p666
sg107
S'/usr/local/lib/python2.7/dist-packages/fuzzywuzzy/__init__'
p667
sg109
g13
(g14
g15
NtRp668
(dp669
g18
I1
sg19
I0
sg20
I1
sg21
I0
sg22
I0
sg23
I0
sg24
I0
sbssg153
S'\x0f9C\x85("\x8e\xce\xa8\x8d\xd9\xb2^\xf9\xbeH'
p670
ssS'_usr_local_lib_python2_7_dist-packages_django_core_management_commands_test'
p671
(dp672
g6
(dp673
g70
S'_usr_local_lib_python2_7_dist-packages_django_core_management_commands_test.html'
p674
sg72
S'/usr/local/lib/python2.7/dist-packages/django/core/management/commands/test'
p675
sg74
g13
(g14
g15
NtRp676
(dp677
g18
I1
sg19
I0
sg20
I46
sg21
I0
sg22
I0
sg23
I6
sg24
I0
sbssg25
S'\xf7\xeb-\xf1\xf2\xda\x05\x0bD\x838\xa9\x98`=\xef'
p678
ssS'_usr_local_lib_python2_7_dist-packages_django_db_models_options'
p679
(dp680
g6
(dp681
g8
S'_usr_local_lib_python2_7_dist-packages_django_db_models_options.html'
p682
sg10
S'/usr/local/lib/python2.7/dist-packages/django/db/models/options'
p683
sg12
g13
(g14
g15
NtRp684
(dp685
g18
I1
sg19
I0
sg20
I373
sg21
I0
sg22
I0
sg23
I99
sg24
I0
sbssg25
S'*M\xb7\xeb\xd2\x8aHv\x96\xf1H\xf1@\x10\x82\xf0'
p686
ssS'_usr_local_lib_python2_7_dist-packages_django_utils_deconstruct'
p687
(dp688
g6
(dp689
g8
S'_usr_local_lib_python2_7_dist-packages_django_utils_deconstruct.html'
p690
sg10
S'/usr/local/lib/python2.7/dist-packages/django/utils/deconstruct'
p691
sg12
g13
(g14
g15
NtRp692
(dp693
g18
I1
sg19
I0
sg20
I24
sg21
I0
sg22
I0
sg23
I9
sg24
I0
sbssg25
S'\xa0gQ\xd6C\xb1\xfa\xd1\xe75\xa9\x0c3\xa4\xe7$'
p694
ssS'_usr_local_lib_python2_7_dist-packages_django_core_urlresolvers'
p695
(dp696
g6
(dp697
g70
S'_usr_local_lib_python2_7_dist-packages_django_core_urlresolvers.html'
p698
sg72
S'/usr/local/lib/python2.7/dist-packages/django/core/urlresolvers'
p699
sg74
g13
(g14
g15
NtRp700
(dp701
g18
I1
sg19
I0
sg20
I379
sg21
I0
sg22
I0
sg23
I108
sg24
I0
sbssg25
S'\xf4\xbd\xccO\x07\x0f8\x7fQ\x02mm\xd7\x8ezm'
p702
ssS'_usr_local_lib_python2_7_dist-packages_django_db_models_fields___init__'
p703
(dp704
g6
(dp705
g70
S'_usr_local_lib_python2_7_dist-packages_django_db_models_fields___init__.html'
p706
sg72
S'/usr/local/lib/python2.7/dist-packages/django/db/models/fields/__init__'
p707
sg74
g13
(g14
g15
NtRp708
(dp709
g18
I1
sg19
I0
sg20
I1134
sg21
I0
sg22
I0
sg23
I526
sg24
I0
sbssg25
S'|\xadk\xa6\x01\xd8\xbc\xb6\x05\x10\xbf\x8c\x96\xa3\x8dc'
p710
ssS'_usr_local_lib_python2_7_dist-packages_testtools_helpers'
p711
(dp712
g147
(dp713
g105
S'_usr_local_lib_python2_7_dist-packages_testtools_helpers.html'
p714
sg107
S'/usr/local/lib/python2.7/dist-packages/testtools/helpers'
p715
sg109
g13
(g14
g15
NtRp716
(dp717
g18
I1
sg19
I0
sg20
I15
sg21
I0
sg22
I0
sg23
I8
sg24
I0
sbssg153
S'kA\xbb\x8am[%\xf2W\xad\\*\xbf\x1e\x00\x8b'
p718
ssS'_usr_local_lib_python2_7_dist-packages_django_middleware_csrf'
p719
(dp720
g6
(dp721
g70
S'_usr_local_lib_python2_7_dist-packages_django_middleware_csrf.html'
p722
sg72
S'/usr/local/lib/python2.7/dist-packages/django/middleware/csrf'
p723
sg74
g13
(g14
g15
NtRp724
(dp725
g18
I1
sg19
I0
sg20
I81
sg21
I0
sg22
I0
sg23
I26
sg24
I0
sbssg25
S'\xd3\n`\xde\xff9\x06\x81\xc8B\x7f\xac\xf5r*\xf0'
p726
ssS'_usr_local_lib_python2_7_dist-packages_testtools_testresult_real'
p727
(dp728
g147
(dp729
g105
S'_usr_local_lib_python2_7_dist-packages_testtools_testresult_real.html'
p730
sg107
S'/usr/local/lib/python2.7/dist-packages/testtools/testresult/real'
p731
sg109
g13
(g14
g15
NtRp732
(dp733
g18
I1
sg19
I0
sg20
I869
sg21
I0
sg22
I0
sg23
I617
sg24
I0
sbssg153
S'\x89\xbcSW\xa2\x01\xc0e\xffy\x11\xaaS\xa9\xfd\xcb'
p734
ssS'_usr_local_lib_python2_7_dist-packages_django_contrib_sites_shortcuts'
p735
(dp736
g6
(dp737
g8
S'_usr_local_lib_python2_7_dist-packages_django_contrib_sites_shortcuts.html'
p738
sg10
S'/usr/local/lib/python2.7/dist-packages/django/contrib/sites/shortcuts'
p739
sg12
g13
(g14
g15
NtRp740
(dp741
g18
I1
sg19
I0
sg20
I8
sg21
I0
sg22
I0
sg23
I5
sg24
I0
sbssg25
S'\xde\xd7\x16\xc7\xd5m\xe1\xd4\xa1(}\xe3O\xe4\xe1\x13'
p742
ssS'_usr_local_lib_python2_7_dist-packages_subunit_v2'
p743
(dp744
g147
(dp745
g105
S'_usr_local_lib_python2_7_dist-packages_subunit_v2.html'
p746
sg107
S'/usr/local/lib/python2.7/dist-packages/subunit/v2'
p747
sg109
g13
(g14
g15
NtRp748
(dp749
g18
I1
sg19
I0
sg20
I279
sg21
I0
sg22
I0
sg23
I225
sg24
I0
sbssg153
S'\xdal\x8a\x82\xefeH\x00Z\x194A\xc4(B\x16'
p750
ssS'_usr_local_lib_python2_7_dist-packages_django_contrib_sessions_backends_db'
p751
(dp752
g6
(dp753
g8
S'_usr_local_lib_python2_7_dist-packages_django_contrib_sessions_backends_db.html'
p754
sg10
S'/usr/local/lib/python2.7/dist-packages/django/contrib/sessions/backends/db'
p755
sg12
g13
(g14
g15
NtRp756
(dp757
g18
I1
sg19
I0
sg20
I53
sg21
I0
sg22
I0
sg23
I16
sg24
I0
sbssg25
S'\xb1*\x80\x86\x89\xf1\x90a\xe8\xff(Q=C\xa11'
p758
ssS'_usr_local_lib_python2_7_dist-packages_unittest2___init__'
p759
(dp760
g147
(dp761
g105
S'_usr_local_lib_python2_7_dist-packages_unittest2___init__.html'
p762
sg107
S'/usr/local/lib/python2.7/dist-packages/unittest2/__init__'
p763
sg109
g13
(g14
g15
NtRp764
(dp765
g18
I1
sg19
I0
sg20
I27
sg21
I0
sg22
I0
sg23
I10
sg24
I0
sbssg153
S'\x88X\ry+\x9e\xdc\x83)AOY\x81\xb8\xf2)'
p766
ssS'_usr_local_lib_python2_7_dist-packages_django_contrib_staticfiles_apps'
p767
(dp768
g6
(dp769
g8
S'_usr_local_lib_python2_7_dist-packages_django_contrib_staticfiles_apps.html'
p770
sg10
S'/usr/local/lib/python2.7/dist-packages/django/contrib/staticfiles/apps'
p771
sg12
g13
(g14
g15
NtRp772
(dp773
g18
I1
sg19
I0
sg20
I5
sg21
I0
sg22
I0
sg23
I0
sg24
I0
sbssg25
S"\xe0\xa6G+$\x97'\xf2\x1a\xd3h\xe0\xc5l\xc3*"
p774
ssS'_usr_local_lib_python2_7_dist-packages_django_http___init__'
p775
(dp776
g6
(dp777
g8
S'_usr_local_lib_python2_7_dist-packages_django_http___init__.html'
p778
sg10
S'/usr/local/lib/python2.7/dist-packages/django/http/__init__'
p779
sg12
g13
(g14
g15
NtRp780
(dp781
g18
I1
sg19
I0
sg20
I5
sg21
I0
sg22
I0
sg23
I0
sg24
I0
sbssg25
S'\xb8\xf1\xd8\xe0\x9f\x0b\x10\xd2eE\xe7\x08\x92\x97\x12\xac'
p782
ssS'_usr_local_lib_python2_7_dist-packages_django_template_defaultfilters'
p783
(dp784
g6
(dp785
g8
S'_usr_local_lib_python2_7_dist-packages_django_template_defaultfilters.html'
p786
sg10
S'/usr/local/lib/python2.7/dist-packages/django/template/defaultfilters'
p787
sg12
g13
(g14
g15
NtRp788
(dp789
g18
I1
sg19
I0
sg20
I459
sg21
I0
sg22
I0
sg23
I327
sg24
I0
sbssg25
S'\x9b\xea\x0bs\xe3\x1d\x04\xef\xdb\x96#\x9fa\xea*N'
p790
ssS'userprofile_admin'
p791
(dp792
g6
(dp793
g8
S'userprofile_admin.html'
p794
sg10
S'userprofile/admin'
p795
sg12
g13
(g14
g15
NtRp796
(dp797
g18
I1
sg19
I0
sg20
I1
sg21
I0
sg22
I0
sg23
I0
sg24
I0
sbssg25
S'\xd4\xe9\x8c\x82\x9c\xa2eU\x87h\x8b\xbe!-\xe2\xdf'
p798
ssS'_usr_local_lib_python2_7_dist-packages_django_db_migrations_autodetector'
p799
(dp800
g6
(dp801
g8
S'_usr_local_lib_python2_7_dist-packages_django_db_migrations_autodetector.html'
p802
sg10
S'/usr/local/lib/python2.7/dist-packages/django/db/migrations/autodetector'
p803
sg12
g13
(g14
g15
NtRp804
(dp805
g18
I1
sg19
I0
sg20
I523
sg21
I0
sg22
I0
sg23
I483
sg24
I0
sbssg25
S'\x02\xa7\xa0\x91\x15\x9e\x06\xd9\xb0.\xa6\xa0\xc0\x12^C'
p806
ssS'_usr_local_lib_python2_7_dist-packages_django_core_cache_backends_base'
p807
(dp808
g6
(dp809
g8
S'_usr_local_lib_python2_7_dist-packages_django_core_cache_backends_base.html'
p810
sg10
S'/usr/local/lib/python2.7/dist-packages/django/core/cache/backends/base'
p811
sg12
g13
(g14
g15
NtRp812
(dp813
g18
I1
sg19
I0
sg20
I108
sg21
I0
sg22
I0
sg23
I57
sg24
I0
sbssg25
S'C\xe7\xe9z\x9f\x119\x1b\x96\xc3X\xcah\xfbm\xc4'
p814
ssS'_usr_local_lib_python2_7_dist-packages_django_utils_cache'
p815
(dp816
g6
(dp817
g70
S'_usr_local_lib_python2_7_dist-packages_django_utils_cache.html'
p818
sg72
S'/usr/local/lib/python2.7/dist-packages/django/utils/cache'
p819
sg74
g13
(g14
g15
NtRp820
(dp821
g18
I1
sg19
I0
sg20
I133
sg21
I0
sg22
I0
sg23
I103
sg24
I0
sbssg25
S'\x95W\x95\x1d\xb0\xc9y\xad\x18T\x82\xf9\x817\xc3~'
p822
ssS'_usr_local_lib_python2_7_dist-packages_django_contrib_admin_checks'
p823
(dp824
g6
(dp825
g8
S'_usr_local_lib_python2_7_dist-packages_django_contrib_admin_checks.html'
p826
sg10
S'/usr/local/lib/python2.7/dist-packages/django/contrib/admin/checks'
p827
sg12
g13
(g14
g15
NtRp828
(dp829
g18
I1
sg19
I0
sg20
I399
sg21
I0
sg22
I0
sg23
I208
sg24
I0
sbssg25
S't\x91&:\xe2\xe5\x14\xfe\xe6\xfc\xff\xbbd\xfd\x03K'
p830
ssS'_usr_local_lib_python2_7_dist-packages_django_template_smartif'
p831
(dp832
g6
(dp833
g70
S'_usr_local_lib_python2_7_dist-packages_django_template_smartif.html'
p834
sg72
S'/usr/local/lib/python2.7/dist-packages/django/template/smartif'
p835
sg74
g13
(g14
g15
NtRp836
(dp837
g18
I1
sg19
I0
sg20
I104
sg21
I0
sg22
I0
sg23
I32
sg24
I0
sbssg25
S'Y"\xa9\xef\xc0`\xc4\xf6\xb4\xc9\xd1\xd8\xec\xda\x1a-'
p838
ssS'_usr_local_lib_python2_7_dist-packages_django_core_files___init__'
p839
(dp840
g6
(dp841
g8
S'_usr_local_lib_python2_7_dist-packages_django_core_files___init__.html'
p842
sg10
S'/usr/local/lib/python2.7/dist-packages/django/core/files/__init__'
p843
sg12
g13
(g14
g15
NtRp844
(dp845
g18
I1
sg19
I0
sg20
I2
sg21
I0
sg22
I0
sg23
I0
sg24
I0
sbssg25
S'G\xfbz6gu\xc3\x13E\x9f3\xbb\xe0d\xe3`'
p846
ssS'_usr_local_lib_python2_7_dist-packages_django_contrib_contenttypes_fields'
p847
(dp848
g6
(dp849
g8
S'_usr_local_lib_python2_7_dist-packages_django_contrib_contenttypes_fields.html'
p850
sg10
S'/usr/local/lib/python2.7/dist-packages/django/contrib/contenttypes/fields'
p851
sg12
g13
(g14
g15
NtRp852
(dp853
g18
I1
sg19
I0
sg20
I292
sg21
I0
sg22
I0
sg23
I238
sg24
I0
sbssg25
S'\x9az\xcbe\x92\xcd;\xbe\x86\xb5\xa2\x89\xfb\xe4\x85\x06'
p854
ssS'_usr_local_lib_python2_7_dist-packages_django_db_backends_sqlite3_schema'
p855
(dp856
g6
(dp857
g8
S'_usr_local_lib_python2_7_dist-packages_django_db_backends_sqlite3_schema.html'
p858
sg10
S'/usr/local/lib/python2.7/dist-packages/django/db/backends/sqlite3/schema'
p859
sg12
g13
(g14
g15
NtRp860
(dp861
g18
I1
sg19
I0
sg20
I109
sg21
I0
sg22
I0
sg23
I27
sg24
I0
sbssg25
S'\x03\x9c\xad\x10\xac0B)\xaf\x8a\xd8\x10n\x95\xd1\x1b'
p862
ssS'_usr_local_lib_python2_7_dist-packages_django_db_models_aggregates'
p863
(dp864
g6
(dp865
g8
S'_usr_local_lib_python2_7_dist-packages_django_db_models_aggregates.html'
p866
sg10
S'/usr/local/lib/python2.7/dist-packages/django/db/models/aggregates'
p867
sg12
g13
(g14
g15
NtRp868
(dp869
g18
I1
sg19
I0
sg20
I33
sg21
I0
sg22
I0
sg23
I11
sg24
I0
sbssg25
S'\xaf\x92\x0fy\x98wh\x16``\x1f\xb1\xb4\xaaG\xb4'
p870
ssS'app1_migrations_0015_auto_20141106_1337'
p871
(dp872
g6
(dp873
g8
S'app1_migrations_0015_auto_20141106_1337.html'
p874
sg10
S'app1/migrations/0015_auto_20141106_1337'
p875
sg12
g13
(g14
g15
NtRp876
(dp877
g18
I1
sg19
I0
sg20
I6
sg21
I0
sg22
I0
sg23
I0
sg24
I0
sbssg25
S'm\xfc\x18w\x82D\x00O)2\xb2Kb3\x14\x83'
p878
ssS'cse360_webapp_views'
p879
(dp880
g6
(dp881
g288
S'cse360_webapp_views.html'
p882
sg290
S'cse360_webapp/views'
p883
sg292
g13
(g14
g15
NtRp884
(dp885
g18
I1
sg19
I0
sg20
I45
sg21
I0
sg22
I0
sg23
I5
sg24
I0
sbssg25
S'\xfcb\xff-\xf9\xb9&IC\xc3s{\xaaPm,'
p886
ssS'_usr_local_lib_python2_7_dist-packages_django_middleware___init__'
p887
(dp888
g6
(dp889
g8
S'_usr_local_lib_python2_7_dist-packages_django_middleware___init__.html'
p890
sg10
S'/usr/local/lib/python2.7/dist-packages/django/middleware/__init__'
p891
sg12
g13
(g14
g15
NtRp892
(dp893
g18
I1
sg19
I0
sg20
I0
sg21
I0
sg22
I0
sg23
I0
sg24
I0
sbssg25
S'\xca\xf5\x9f\x7f\x88\xdfa\x831|T\x1d\xbc}\xa5v'
p894
ssS'_usr_local_lib_python2_7_dist-packages_django_contrib_sessions_serializers'
p895
(dp896
g6
(dp897
g8
S'_usr_local_lib_python2_7_dist-packages_django_contrib_sessions_serializers.html'
p898
sg10
S'/usr/local/lib/python2.7/dist-packages/django/contrib/sessions/serializers'
p899
sg12
g13
(g14
g15
NtRp900
(dp901
g18
I1
sg19
I0
sg20
I11
sg21
I0
sg22
I0
sg23
I4
sg24
I0
sbssg25
S'\xd1\r\xe2\x0e_2\xa4;r\xa8z\x90a\xba\xc2\xb4'
p902
ssS'_usr_local_lib_python2_7_dist-packages_django_apps_registry'
p903
(dp904
g6
(dp905
g8
S'_usr_local_lib_python2_7_dist-packages_django_apps_registry.html'
p906
sg10
S'/usr/local/lib/python2.7/dist-packages/django/apps/registry'
p907
sg12
g13
(g14
g15
NtRp908
(dp909
g18
I1
sg19
I0
sg20
I181
sg21
I0
sg22
I0
sg23
I73
sg24
I0
sbssg25
S'\xfcF\xe9\x98\xb3\xb3w\x9a\xa9J\xd1\xa5\xf8a\x83\x08'
p910
ssS'cse360_webapp_settings'
p911
(dp912
g6
(dp913
g105
S'cse360_webapp_settings.html'
p914
sg107
S'cse360_webapp/settings'
p915
sg109
g13
(g14
g15
NtRp916
(dp917
g18
I1
sg19
I0
sg20
I26
sg21
I0
sg22
I0
sg23
I0
sg24
I0
sbssg25
S'\xc7\x8f\xf3\xee^jV\xcf{\r\x9c\xc5\xc0\x18\xf8$'
p918
ssS'_usr_local_lib_python2_7_dist-packages_django_core_exceptions'
p919
(dp920
g6
(dp921
g70
S'_usr_local_lib_python2_7_dist-packages_django_core_exceptions.html'
p922
sg72
S'/usr/local/lib/python2.7/dist-packages/django/core/exceptions'
p923
sg74
g13
(g14
g15
NtRp924
(dp925
g18
I1
sg19
I0
sg20
I85
sg21
I0
sg22
I0
sg23
I32
sg24
I0
sbssg25
S"\xadn\xd3\x85\xcae\xa4&\xd8.k\xb4'{\xeb\x99"
p926
ssS'userprofile_migrations_0001_initial'
p927
(dp928
g6
(dp929
g8
S'userprofile_migrations_0001_initial.html'
p930
sg10
S'userprofile/migrations/0001_initial'
p931
sg12
g13
(g14
g15
NtRp932
(dp933
g18
I1
sg19
I0
sg20
I6
sg21
I0
sg22
I0
sg23
I0
sg24
I0
sbssg25
S'\xee\x84R\x03\xb5\xe3z\x99\x1d\tP\xc2z"2\x89'
p934
ssS'app1_migrations_0011_ticket'
p935
(dp936
g6
(dp937
g8
S'app1_migrations_0011_ticket.html'
p938
sg10
S'app1/migrations/0011_ticket'
p939
sg12
g13
(g14
g15
NtRp940
(dp941
g18
I1
sg19
I0
sg20
I6
sg21
I0
sg22
I0
sg23
I0
sg24
I0
sbssg25
S'>i\xc1\x02\xeb\xc0+\xdb\xc7V\x95\x938\xe2\xd1\xb2'
p942
ssS'_usr_local_lib_python2_7_dist-packages_testtools_matchers__basic'
p943
(dp944
g147
(dp945
g105
S'_usr_local_lib_python2_7_dist-packages_testtools_matchers__basic.html'
p946
sg107
S'/usr/local/lib/python2.7/dist-packages/testtools/matchers/_basic'
p947
sg109
g13
(g14
g15
NtRp948
(dp949
g18
I1
sg19
I0
sg20
I151
sg21
I0
sg22
I0
sg23
I81
sg24
I0
sbssg153
S'm\x0bA\x06\xdbJGSx\x8a26\x05O\x06:'
p950
ssS'_usr_local_lib_python2_7_dist-packages_django_contrib_sessions_management___init__'
p951
(dp952
g6
(dp953
g8
S'_usr_local_lib_python2_7_dist-packages_django_contrib_sessions_management___init__.html'
p954
sg10
S'/usr/local/lib/python2.7/dist-packages/django/contrib/sessions/management/__init__'
p955
sg12
g13
(g14
g15
NtRp956
(dp957
g18
I1
sg19
I0
sg20
I0
sg21
I0
sg22
I0
sg23
I0
sg24
I0
sbssg25
S'\xca\xf5\x9f\x7f\x88\xdfa\x831|T\x1d\xbc}\xa5v'
p958
ssS'_usr_local_lib_python2_7_dist-packages_django_db_backends_sqlite3_base'
p959
(dp960
g6
(dp961
g8
S'_usr_local_lib_python2_7_dist-packages_django_db_backends_sqlite3_base.html'
p962
sg10
S'/usr/local/lib/python2.7/dist-packages/django/db/backends/sqlite3/base'
p963
sg12
g13
(g14
g15
NtRp964
(dp965
g18
I1
sg19
I0
sg20
I322
sg21
I0
sg22
I0
sg23
I142
sg24
I0
sbssg25
S'\x05q\xc3_\xc3\x83Y5\\\xe2\xb3\x15/\xb7\xbcw'
p966
ssS'_usr_local_lib_python2_7_dist-packages_django_core_files_uploadhandler'
p967
(dp968
g6
(dp969
g70
S'_usr_local_lib_python2_7_dist-packages_django_core_files_uploadhandler.html'
p970
sg72
S'/usr/local/lib/python2.7/dist-packages/django/core/files/uploadhandler'
p971
sg74
g13
(g14
g15
NtRp972
(dp973
g18
I1
sg19
I0
sg20
I78
sg21
I0
sg22
I0
sg23
I30
sg24
I0
sbssg25
S'\x12W\x19\x15\x929.*\xa4\x1f\x00\x9d\x9a~\x01\xd9'
p974
ssS'_usr_local_lib_python2_7_dist-packages_lettuce_plugins_autopdb'
p975
(dp976
g147
(dp977
g105
S'_usr_local_lib_python2_7_dist-packages_lettuce_plugins_autopdb.html'
p978
sg107
S'/usr/local/lib/python2.7/dist-packages/lettuce/plugins/autopdb'
p979
sg109
g13
(g14
g15
NtRp980
(dp981
g18
I1
sg19
I0
sg20
I24
sg21
I0
sg22
I0
sg23
I21
sg24
I0
sbssg153
S"\xa3`?7\xad\x1a\x91S'\r\x8c\xee\xd0\x93\xd0\x8d"
p982
ssS'_usr_local_lib_python2_7_dist-packages_django_template_base'
p983
(dp984
g6
(dp985
g70
S'_usr_local_lib_python2_7_dist-packages_django_template_base.html'
p986
sg72
S'/usr/local/lib/python2.7/dist-packages/django/template/base'
p987
sg74
g13
(g14
g15
NtRp988
(dp989
g18
I1
sg19
I0
sg20
I786
sg21
I0
sg22
I0
sg23
I361
sg24
I0
sbssg25
S'\x92\xa7T\x08\xcd\x96\xfc\xdcw\xcee_\xfc\xc1\x0e\xe4'
p990
ssS'_usr_local_lib_python2_7_dist-packages_django_core_management_commands___init__'
p991
(dp992
g6
(dp993
g8
S'_usr_local_lib_python2_7_dist-packages_django_core_management_commands___init__.html'
p994
sg10
S'/usr/local/lib/python2.7/dist-packages/django/core/management/commands/__init__'
p995
sg12
g13
(g14
g15
NtRp996
(dp997
g18
I1
sg19
I0
sg20
I0
sg21
I0
sg22
I0
sg23
I0
sg24
I0
sbssg25
S'\xca\xf5\x9f\x7f\x88\xdfa\x831|T\x1d\xbc}\xa5v'
p998
ssS'_usr_local_lib_python2_7_dist-packages_django_conf_locale_en_formats'
p999
(dp1000
g6
(dp1001
g8
S'_usr_local_lib_python2_7_dist-packages_django_conf_locale_en_formats.html'
p1002
sg10
S'/usr/local/lib/python2.7/dist-packages/django/conf/locale/en/formats'
p1003
sg12
g13
(g14
g15
NtRp1004
(dp1005
g18
I1
sg19
I0
sg20
I14
sg21
I0
sg22
I0
sg23
I0
sg24
I0
sbssg25
S'":\x15\xfc\xde^\x1a\x9bh^\xbc\x1c\xdb\xe5B\xb2'
p1006
ssS'_usr_local_lib_python2_7_dist-packages_django_core_files_base'
p1007
(dp1008
g6
(dp1009
g8
S'_usr_local_lib_python2_7_dist-packages_django_core_files_base.html'
p1010
sg10
S'/usr/local/lib/python2.7/dist-packages/django/core/files/base'
p1011
sg12
g13
(g14
g15
NtRp1012
(dp1013
g18
I1
sg19
I0
sg20
I106
sg21
I0
sg22
I0
sg23
I63
sg24
I0
sbssg25
S'gJ\xe3\x9d\x92\x15\x1aWc\xfd\x93\xd4\x9ew\xa0\xad'
p1014
ssS'_usr_local_lib_python2_7_dist-packages_django_forms_forms'
p1015
(dp1016
g6
(dp1017
g70
S'_usr_local_lib_python2_7_dist-packages_django_forms_forms.html'
p1018
sg72
S'/usr/local/lib/python2.7/dist-packages/django/forms/forms'
p1019
sg74
g13
(g14
g15
NtRp1020
(dp1021
g18
I1
sg19
I0
sg20
I325
sg21
I0
sg22
I0
sg23
I102
sg24
I0
sbssg25
S'\xf5]\x14:\xca\x0c\xa6\x95\xa4\x8b\xd86l>\xa5\x08'
p1022
ssS'_usr_local_lib_python2_7_dist-packages_django_contrib_admin_decorators'
p1023
(dp1024
g6
(dp1025
g8
S'_usr_local_lib_python2_7_dist-packages_django_contrib_admin_decorators.html'
p1026
sg10
S'/usr/local/lib/python2.7/dist-packages/django/contrib/admin/decorators'
p1027
sg12
g13
(g14
g15
NtRp1028
(dp1029
g18
I1
sg19
I0
sg20
I12
sg21
I0
sg22
I0
sg23
I11
sg24
I0
sbssg25
S']\xe7^2}\xff\xf9\x13R\x9eeQ\xba8\xdeV'
p1030
ssS'_usr_local_lib_python2_7_dist-packages_django_utils_translation___init__'
p1031
(dp1032
g6
(dp1033
g8
S'_usr_local_lib_python2_7_dist-packages_django_utils_translation___init__.html'
p1034
sg10
S'/usr/local/lib/python2.7/dist-packages/django/utils/translation/__init__'
p1035
sg12
g13
(g14
g15
NtRp1036
(dp1037
g18
I1
sg19
I0
sg20
I115
sg21
I0
sg22
I0
sg23
I49
sg24
I0
sbssg25
S'\xa0\xb3d\x15\xd6\xed;\x10|j\xf6wzk\xd8\xd6'
p1038
ssS'_usr_local_lib_python2_7_dist-packages_django_utils_safestring'
p1039
(dp1040
g6
(dp1041
g70
S'_usr_local_lib_python2_7_dist-packages_django_utils_safestring.html'
p1042
sg72
S'/usr/local/lib/python2.7/dist-packages/django/utils/safestring'
p1043
sg74
g13
(g14
g15
NtRp1044
(dp1045
g18
I1
sg19
I0
sg20
I63
sg21
I0
sg22
I0
sg23
I26
sg24
I0
sbssg25
S'\x0f\x8e\x86\x1c\x1ak\xcb\x01\x9dU\xc5\xb5QX~\xf6'
p1046
ssS'_usr_local_lib_python2_7_dist-packages_django_http_utils'
p1047
(dp1048
g6
(dp1049
g105
S'_usr_local_lib_python2_7_dist-packages_django_http_utils.html'
p1050
sg107
S'/usr/local/lib/python2.7/dist-packages/django/http/utils'
p1051
sg109
g13
(g14
g15
NtRp1052
(dp1053
g18
I1
sg19
I0
sg20
I15
sg21
I0
sg22
I0
sg23
I7
sg24
I0
sbssg25
S'\xe39/U~\x81S\xe9=\xbe\x07~\xd5O\xcb{'
p1054
ssS'app1_admin'
p1055
(dp1056
g6
(dp1057
g8
S'app1_admin.html'
p1058
sg10
S'app1/admin'
p1059
sg12
g13
(g14
g15
NtRp1060
(dp1061
g18
I1
sg19
I0
sg20
I3
sg21
I0
sg22
I0
sg23
I0
sg24
I0
sbssg25
S"\xbfK\x86'\xeajE_\xf3\x98H\x9a\xb9\xb1\xff\x8b"
p1062
ssS'_usr_local_lib_python2_7_dist-packages_django_db_models_sql_query'
p1063
(dp1064
g6
(dp1065
g8
S'_usr_local_lib_python2_7_dist-packages_django_db_models_sql_query.html'
p1066
sg10
S'/usr/local/lib/python2.7/dist-packages/django/db/models/sql/query'
p1067
sg12
g13
(g14
g15
NtRp1068
(dp1069
g18
I1
sg19
I0
sg20
I1039
sg21
I0
sg22
I0
sg23
I540
sg24
I0
sbssg25
S'\xad\xb8\xcb\x06{\xc9\xe2\xf2n\xadM\x8chD=K'
p1070
ssS'_usr_local_lib_python2_7_dist-packages_django_utils_functional'
p1071
(dp1072
g6
(dp1073
g70
S'_usr_local_lib_python2_7_dist-packages_django_utils_functional.html'
p1074
sg72
S'/usr/local/lib/python2.7/dist-packages/django/utils/functional'
p1075
sg74
g13
(g14
g15
NtRp1076
(dp1077
g18
I1
sg19
I0
sg20
I232
sg21
I0
sg22
I0
sg23
I92
sg24
I0
sbssg25
S'$\xbdf\x8f\xad\xd7\xd8\xb2\xcf\x94\xe6\x82\x0b\xc4%~'
p1078
ssS'_usr_local_lib_python2_7_dist-packages_django_contrib_admin_templatetags___init__'
p1079
(dp1080
g6
(dp1081
g8
S'_usr_local_lib_python2_7_dist-packages_django_contrib_admin_templatetags___init__.html'
p1082
sg10
S'/usr/local/lib/python2.7/dist-packages/django/contrib/admin/templatetags/__init__'
p1083
sg12
g13
(g14
g15
NtRp1084
(dp1085
g18
I1
sg19
I0
sg20
I0
sg21
I0
sg22
I0
sg23
I0
sg24
I0
sbssg25
S'\xca\xf5\x9f\x7f\x88\xdfa\x831|T\x1d\xbc}\xa5v'
p1086
ssS'_usr_local_lib_python2_7_dist-packages_django_db_backends_sqlite3_creation'
p1087
(dp1088
g6
(dp1089
g8
S'_usr_local_lib_python2_7_dist-packages_django_db_backends_sqlite3_creation.html'
p1090
sg10
S'/usr/local/lib/python2.7/dist-packages/django/db/backends/sqlite3/creation'
p1091
sg12
g13
(g14
g15
NtRp1092
(dp1093
g18
I1
sg19
I0
sg20
I42
sg21
I0
sg22
I0
sg23
I17
sg24
I0
sbssg25
S'\x14BZ\xcb\xda\xb9\x1a.\xcaF\x9d)\xad\x8d\xa0\xfc'
p1094
ssS'_usr_local_lib_python2_7_dist-packages_django_core_management_commands_migrate'
p1095
(dp1096
g6
(dp1097
g8
S'_usr_local_lib_python2_7_dist-packages_django_core_management_commands_migrate.html'
p1098
sg10
S'/usr/local/lib/python2.7/dist-packages/django/core/management/commands/migrate'
p1099
sg12
g13
(g14
g15
NtRp1100
(dp1101
g18
I1
sg19
I0
sg20
I213
sg21
I0
sg22
I0
sg23
I156
sg24
I0
sbssg25
S'3\x11\x866r/D\x1aIQ.\xba\x0e\tiA'
p1102
ssS'_usr_local_lib_python2_7_dist-packages_django_core_checks___init__'
p1103
(dp1104
g6
(dp1105
g8
S'_usr_local_lib_python2_7_dist-packages_django_core_checks___init__.html'
p1106
sg10
S'/usr/local/lib/python2.7/dist-packages/django/core/checks/__init__'
p1107
sg12
g13
(g14
g15
NtRp1108
(dp1109
g18
I1
sg19
I0
sg20
I7
sg21
I0
sg22
I0
sg23
I0
sg24
I0
sbssg25
S'X\xb2\r|\x19\x80\x9d\x00H\xa3\x06n\x8a\xa6\x90\xa1'
p1110
ssS'_usr_local_lib_python2_7_dist-packages_subunit_test_results'
p1111
(dp1112
g147
(dp1113
g105
S'_usr_local_lib_python2_7_dist-packages_subunit_test_results.html'
p1114
sg107
S'/usr/local/lib/python2.7/dist-packages/subunit/test_results'
p1115
sg109
g13
(g14
g15
NtRp1116
(dp1117
g18
I1
sg19
I0
sg20
I414
sg21
I0
sg22
I0
sg23
I284
sg24
I0
sbssg153
S'g\xe7J|ub\xafD\x85\xbc\x06b\xa1&:\x97'
p1118
ssS'_usr_local_lib_python2_7_dist-packages_django_db_backends_sqlite3_introspection'
p1119
(dp1120
g6
(dp1121
g8
S'_usr_local_lib_python2_7_dist-packages_django_db_backends_sqlite3_introspection.html'
p1122
sg10
S'/usr/local/lib/python2.7/dist-packages/django/db/backends/sqlite3/introspection'
p1123
sg12
g13
(g14
g15
NtRp1124
(dp1125
g18
I1
sg19
I0
sg20
I111
sg21
I0
sg22
I0
sg23
I92
sg24
I0
sbssg25
S'\xfa\xe0\x15\xab-\xfe\x8f\xd77\xb0i\xe0@:\x97\xae'
p1126
ssS'_usr_local_lib_python2_7_dist-packages_django_contrib_auth_checks'
p1127
(dp1128
g6
(dp1129
g8
S'_usr_local_lib_python2_7_dist-packages_django_contrib_auth_checks.html'
p1130
sg10
S'/usr/local/lib/python2.7/dist-packages/django/contrib/auth/checks'
p1131
sg12
g13
(g14
g15
NtRp1132
(dp1133
g18
I1
sg19
I0
sg20
I16
sg21
I0
sg22
I0
sg23
I5
sg24
I0
sbssg25
S'\\\xef\xc4\xa3$\xb2gNa\xba\xd0\x03\xa0\x87i\x84'
p1134
ssS'_usr_local_lib_python2_7_dist-packages_django_contrib_messages_storage_session'
p1135
(dp1136
g6
(dp1137
g8
S'_usr_local_lib_python2_7_dist-packages_django_contrib_messages_storage_session.html'
p1138
sg10
S'/usr/local/lib/python2.7/dist-packages/django/contrib/messages/storage/session'
p1139
sg12
g13
(g14
g15
NtRp1140
(dp1141
g18
I1
sg19
I0
sg20
I23
sg21
I0
sg22
I0
sg23
I10
sg24
I0
sbssg25
S'\xa3\x90\x83\xacq*\x12\xe6p\x08\xd68\xb7\x1f\x97\xf7'
p1142
ssS'_usr_local_lib_python2_7_dist-packages_django_apps_config'
p1143
(dp1144
g6
(dp1145
g8
S'_usr_local_lib_python2_7_dist-packages_django_apps_config.html'
p1146
sg10
S'/usr/local/lib/python2.7/dist-packages/django/apps/config'
p1147
sg12
g13
(g14
g15
NtRp1148
(dp1149
g18
I1
sg19
I0
sg20
I84
sg21
I0
sg22
I0
sg23
I23
sg24
I0
sbssg25
S'\xa5}\xd0\xbcI|\xc2\xf4^\x8b\xcb#X\xf2\xd7\xea'
p1150
ssS'_usr_local_lib_python2_7_dist-packages_django_db_models_sql_constants'
p1151
(dp1152
g6
(dp1153
g8
S'_usr_local_lib_python2_7_dist-packages_django_db_models_sql_constants.html'
p1154
sg10
S'/usr/local/lib/python2.7/dist-packages/django/db/models/sql/constants'
p1155
sg12
g13
(g14
g15
NtRp1156
(dp1157
g18
I1
sg19
I0
sg20
I12
sg21
I0
sg22
I0
sg23
I0
sg24
I0
sbssg25
S'\xd9\xa0\x04%}\xdd\x7f\xdaP\xfe\xce(\x8f\x8d\x9c|'
p1158
ssS'_usr_local_lib_python2_7_dist-packages_django_db_backends_schema'
p1159
(dp1160
g6
(dp1161
g8
S'_usr_local_lib_python2_7_dist-packages_django_db_backends_schema.html'
p1162
sg10
S'/usr/local/lib/python2.7/dist-packages/django/db/backends/schema'
p1163
sg12
g13
(g14
g15
NtRp1164
(dp1165
g18
I1
sg19
I0
sg20
I387
sg21
I0
sg22
I0
sg23
I226
sg24
I0
sbssg25
S'h[Z\xad\x0c=\xbc\x7fLi\x1b\xce\x01p\xd7\xff'
p1166
ssS'_usr_local_lib_python2_7_dist-packages_lettuce_languages'
p1167
(dp1168
g147
(dp1169
g105
S'_usr_local_lib_python2_7_dist-packages_lettuce_languages.html'
p1170
sg107
S'/usr/local/lib/python2.7/dist-packages/lettuce/languages'
p1171
sg109
g13
(g14
g15
NtRp1172
(dp1173
g18
I1
sg19
I0
sg20
I1
sg21
I0
sg22
I0
sg23
I0
sg24
I0
sbssg153
S'9\xc4\xbf\xb5\x9aU9\xdcJ\xa5C\xe0\x96/\x7f>'
p1174
ssS'_usr_local_lib_python2_7_dist-packages_django_views_decorators_debug'
p1175
(dp1176
g6
(dp1177
g8
S'_usr_local_lib_python2_7_dist-packages_django_views_decorators_debug.html'
p1178
sg10
S'/usr/local/lib/python2.7/dist-packages/django/views/decorators/debug'
p1179
sg12
g13
(g14
g15
NtRp1180
(dp1181
g18
I1
sg19
I0
sg20
I21
sg21
I0
sg22
I0
sg23
I13
sg24
I0
sbssg25
S'I\x8e\xa5 \xf8\xe3\x9d\x0f\xa4\xa7W+\xde\xa3z\xc6'
p1182
ssS'_usr_local_lib_python2_7_dist-packages_django_template___init__'
p1183
(dp1184
g6
(dp1185
g8
S'_usr_local_lib_python2_7_dist-packages_django_template___init__.html'
p1186
sg10
S'/usr/local/lib/python2.7/dist-packages/django/template/__init__'
p1187
sg12
g13
(g14
g15
NtRp1188
(dp1189
g18
I1
sg19
I0
sg20
I6
sg21
I0
sg22
I0
sg23
I0
sg24
I0
sbssg25
S'\xbd\xcbV\x04\\\x82\xb5\x18\xd1\xcfk\x85 DD\xba'
p1190
ssS'_usr_local_lib_python2_7_dist-packages_testtools_matchers__filesystem'
p1191
(dp1192
g147
(dp1193
g105
S'_usr_local_lib_python2_7_dist-packages_testtools_matchers__filesystem.html'
p1194
sg107
S'/usr/local/lib/python2.7/dist-packages/testtools/matchers/_filesystem'
p1195
sg109
g13
(g14
g15
NtRp1196
(dp1197
g18
I1
sg19
I0
sg20
I74
sg21
I0
sg22
I0
sg23
I48
sg24
I0
sbssg153
S'}\x87C\x83\x80n\x8b\x9az\x1a\xe2\xbbg\x82L\t'
p1198
ssS'_usr_local_lib_python2_7_dist-packages_django_contrib_contenttypes_models'
p1199
(dp1200
g6
(dp1201
g8
S'_usr_local_lib_python2_7_dist-packages_django_contrib_contenttypes_models.html'
p1202
sg10
S'/usr/local/lib/python2.7/dist-packages/django/contrib/contenttypes/models'
p1203
sg12
g13
(g14
g15
NtRp1204
(dp1205
g18
I1
sg19
I0
sg20
I105
sg21
I0
sg22
I0
sg23
I54
sg24
I0
sbssg25
S'\xbf\xf9\xf6\xda\xbf\x93b\x16\xe6\xc2\xeb.\xd0\xbeEv'
p1206
ssS'_usr_local_lib_python2_7_dist-packages_unittest2_loader'
p1207
(dp1208
g147
(dp1209
g105
S'_usr_local_lib_python2_7_dist-packages_unittest2_loader.html'
p1210
sg107
S'/usr/local/lib/python2.7/dist-packages/unittest2/loader'
p1211
sg109
g13
(g14
g15
NtRp1212
(dp1213
g18
I1
sg19
I0
sg20
I304
sg21
I0
sg22
I0
sg23
I258
sg24
I0
sbssg153
S'\\0@\xea\xe1\xfb2\ry\xcc;\xfb\xc6N\xcei'
p1214
ssS'_usr_local_lib_python2_7_dist-packages_unittest2_compatibility'
p1215
(dp1216
g147
(dp1217
g105
S'_usr_local_lib_python2_7_dist-packages_unittest2_compatibility.html'
p1218
sg107
S'/usr/local/lib/python2.7/dist-packages/unittest2/compatibility'
p1219
sg109
g13
(g14
g15
NtRp1220
(dp1221
g18
I1
sg19
I0
sg20
I158
sg21
I0
sg22
I0
sg23
I119
sg24
I0
sbssg153
S'@2\xe4\x9a\x1e\xae,\xc33\xb5\xf8\xa4g\x9b\x01h'
p1222
ssS'_usr_local_lib_python2_7_dist-packages_django_templatetags___init__'
p1223
(dp1224
g221
(dp1225
g70
S'_usr_local_lib_python2_7_dist-packages_django_templatetags___init__.html'
p1226
sg72
S'/usr/local/lib/python2.7/dist-packages/django/templatetags/__init__'
p1227
sg74
g13
(g14
g15
NtRp1228
(dp1229
g18
I1
sg19
I0
sg20
I0
sg21
I0
sg22
I0
sg23
I0
sg24
I0
sbssg227
S'\xca\xf5\x9f\x7f\x88\xdfa\x831|T\x1d\xbc}\xa5v'
p1230
ssS'_usr_local_lib_python2_7_dist-packages_django_db_backends_utils'
p1231
(dp1232
g6
(dp1233
g8
S'_usr_local_lib_python2_7_dist-packages_django_db_backends_utils.html'
p1234
sg10
S'/usr/local/lib/python2.7/dist-packages/django/db/backends/utils'
p1235
sg12
g13
(g14
g15
NtRp1236
(dp1237
g18
I1
sg19
I0
sg20
I120
sg21
I0
sg22
I0
sg23
I73
sg24
I0
sbssg25
S'\xc3\xf5\xf1\xf3qg\xdb5\x81)/\nb\xf8g\x8b'
p1238
ssS'_usr_local_lib_python2_7_dist-packages_django_db_migrations_operations_models'
p1239
(dp1240
g6
(dp1241
g8
S'_usr_local_lib_python2_7_dist-packages_django_db_migrations_operations_models.html'
p1242
sg10
S'/usr/local/lib/python2.7/dist-packages/django/db/migrations/operations/models'
p1243
sg12
g13
(g14
g15
NtRp1244
(dp1245
g18
I1
sg19
I0
sg20
I215
sg21
I0
sg22
I0
sg23
I121
sg24
I0
sbssg25
S'Q\x05\x1f|\x83TZ\x04dQ\xdc=w\xf1+\x1b'
p1246
ssS'_usr_local_lib_python2_7_dist-packages_django_db_models_signals'
p1247
(dp1248
g6
(dp1249
g8
S'_usr_local_lib_python2_7_dist-packages_django_db_models_signals.html'
p1250
sg10
S'/usr/local/lib/python2.7/dist-packages/django/db/models/signals'
p1251
sg12
g13
(g14
g15
NtRp1252
(dp1253
g18
I1
sg19
I0
sg20
I43
sg21
I0
sg22
I0
sg23
I13
sg24
I0
sbssg25
S'\xb0\x8b\x99\xfc]2\xbf\xfc\xb8\xffx]D\xfe\xe1\xad'
p1254
ssS'_usr_local_lib_python2_7_dist-packages_lettuce_plugins___init__'
p1255
(dp1256
g147
(dp1257
g105
S'_usr_local_lib_python2_7_dist-packages_lettuce_plugins___init__.html'
p1258
sg107
S'/usr/local/lib/python2.7/dist-packages/lettuce/plugins/__init__'
p1259
sg109
g13
(g14
g15
NtRp1260
(dp1261
g18
I1
sg19
I0
sg20
I0
sg21
I0
sg22
I0
sg23
I0
sg24
I0
sbssg153
S'6\xb8Q\xe6\x96\x1b\xd1\x1fG4\xc3\x167\xc4\xd2\xfe'
p1262
ssS'_usr_local_lib_python2_7_dist-packages_django_core_checks_registry'
p1263
(dp1264
g6
(dp1265
g8
S'_usr_local_lib_python2_7_dist-packages_django_core_checks_registry.html'
p1266
sg10
S'/usr/local/lib/python2.7/dist-packages/django/core/checks/registry'
p1267
sg12
g13
(g14
g15
NtRp1268
(dp1269
g18
I1
sg19
I0
sg20
I36
sg21
I0
sg22
I0
sg23
I3
sg24
I0
sbssg25
S')\\\xfeP\xa9\xa2\xa2\xcc.g\xa5\x897\xdf\x0f\x97'
p1270
ssS'userprofile_migrations___init__'
p1271
(dp1272
g6
(dp1273
g8
S'userprofile_migrations___init__.html'
p1274
sg10
S'userprofile/migrations/__init__'
p1275
sg12
g13
(g14
g15
NtRp1276
(dp1277
g18
I1
sg19
I0
sg20
I0
sg21
I0
sg22
I0
sg23
I0
sg24
I0
sbssg25
S'\xca\xf5\x9f\x7f\x88\xdfa\x831|T\x1d\xbc}\xa5v'
p1278
ssS'_usr_local_lib_python2_7_dist-packages_fuzzywuzzy_string_processing'
p1279
(dp1280
g147
(dp1281
g105
S'_usr_local_lib_python2_7_dist-packages_fuzzywuzzy_string_processing.html'
p1282
sg107
S'/usr/local/lib/python2.7/dist-packages/fuzzywuzzy/string_processing'
p1283
sg109
g13
(g14
g15
NtRp1284
(dp1285
g18
I1
sg19
I0
sg20
I12
sg21
I0
sg22
I0
sg23
I5
sg24
I0
sbssg153
S'\xd3\xc1\x11\xb6\x17\xbe\xd3\xd07\xd7|\xb4\xd2O\x9bs'
p1286
ssS'_usr_local_lib_python2_7_dist-packages_django_contrib_admin_sites'
p1287
(dp1288
g6
(dp1289
g8
S'_usr_local_lib_python2_7_dist-packages_django_contrib_admin_sites.html'
p1290
sg10
S'/usr/local/lib/python2.7/dist-packages/django/contrib/admin/sites'
p1291
sg12
g13
(g14
g15
NtRp1292
(dp1293
g18
I1
sg19
I0
sg20
I219
sg21
I0
sg22
I0
sg23
I125
sg24
I0
sbssg25
S'\x1ci\x97\x8e\xf403\xdd!\t\xb7\x06\x98\xe7\xe4n'
p1294
ssS'app1_migrations_0009_auto_20141102_1707'
p1295
(dp1296
g6
(dp1297
g8
S'app1_migrations_0009_auto_20141102_1707.html'
p1298
sg10
S'app1/migrations/0009_auto_20141102_1707'
p1299
sg12
g13
(g14
g15
NtRp1300
(dp1301
g18
I1
sg19
I0
sg20
I5
sg21
I0
sg22
I0
sg23
I0
sg24
I0
sbssg25
S'\xc6\xb9vv\x0b\xf4\x15\xcd\x19\x92H&;`\x90c'
p1302
ssS'_usr_local_lib_python2_7_dist-packages_django_core_serializers___init__'
p1303
(dp1304
g6
(dp1305
g8
S'_usr_local_lib_python2_7_dist-packages_django_core_serializers___init__.html'
p1306
sg10
S'/usr/local/lib/python2.7/dist-packages/django/core/serializers/__init__'
p1307
sg12
g13
(g14
g15
NtRp1308
(dp1309
g18
I1
sg19
I0
sg20
I64
sg21
I0
sg22
I0
sg23
I22
sg24
I0
sbssg25
S"\x82\x1e\xd2\xd0<\xf5'\xc3Z\xb7\x83X\x1f&\x92\xac"
p1310
ssS'_usr_local_lib_python2_7_dist-packages_unittest2_case'
p1311
(dp1312
g147
(dp1313
g105
S'_usr_local_lib_python2_7_dist-packages_unittest2_case.html'
p1314
sg107
S'/usr/local/lib/python2.7/dist-packages/unittest2/case'
p1315
sg109
g13
(g14
g15
NtRp1316
(dp1317
g18
I1
sg19
I0
sg20
I770
sg21
I0
sg22
I0
sg23
I609
sg24
I0
sbssg153
S'\xe3\xaa\xef2\x89\x89|\x9f\x0e\xff\x89(@Grv'
p1318
ssS'app1_urls'
p1319
(dp1320
g6
(dp1321
g8
S'app1_urls.html'
p1322
sg10
S'app1/urls'
p1323
sg12
g13
(g14
g15
NtRp1324
(dp1325
g18
I1
sg19
I0
sg20
I5
sg21
I0
sg22
I0
sg23
I0
sg24
I0
sbssg25
S'\xb7\xc2\x03\xe4\xdc\xb8\x1f(\xe1\x88$\xc7\xe9t\x0bz'
p1326
ssS'userprofile_views'
p1327
(dp1328
g6
(dp1329
g70
S'userprofile_views.html'
p1330
sg72
S'userprofile/views'
p1331
sg74
g13
(g14
g15
NtRp1332
(dp1333
g18
I1
sg19
I0
sg20
I18
sg21
I0
sg22
I0
sg23
I4
sg24
I0
sbssg25
S"!4U\x7f7\xb5F8\x84\xee\xe7T\xf0\x85\xb5'"
p1334
ssS'_usr_local_lib_python2_7_dist-packages_django_core_signing'
p1335
(dp1336
g6
(dp1337
g8
S'_usr_local_lib_python2_7_dist-packages_django_core_signing.html'
p1338
sg10
S'/usr/local/lib/python2.7/dist-packages/django/core/signing'
p1339
sg12
g13
(g14
g15
NtRp1340
(dp1341
g18
I1
sg19
I0
sg20
I87
sg21
I0
sg22
I0
sg23
I53
sg24
I0
sbssg25
S'y\xb0\xeeB\x83k\x80gIxoV>\xa8\xf7\x92'
p1342
ssS'_usr_local_lib_python2_7_dist-packages_django_contrib_admin_helpers'
p1343
(dp1344
g6
(dp1345
g8
S'_usr_local_lib_python2_7_dist-packages_django_contrib_admin_helpers.html'
p1346
sg10
S'/usr/local/lib/python2.7/dist-packages/django/contrib/admin/helpers'
p1347
sg12
g13
(g14
g15
NtRp1348
(dp1349
g18
I1
sg19
I0
sg20
I229
sg21
I0
sg22
I0
sg23
I168
sg24
I0
sbssg25
S'q\xa2\x10\x857\x87\x00\xf2\xd0\xabF\xb4CC\x12\xda'
p1350
ssS'_usr_local_lib_python2_7_dist-packages_django_db_migrations_operations_fields'
p1351
(dp1352
g6
(dp1353
g8
S'_usr_local_lib_python2_7_dist-packages_django_db_migrations_operations_fields.html'
p1354
sg10
S'/usr/local/lib/python2.7/dist-packages/django/db/migrations/operations/fields'
p1355
sg12
g13
(g14
g15
NtRp1356
(dp1357
g18
I1
sg19
I0
sg20
I127
sg21
I0
sg22
I0
sg23
I37
sg24
I0
sbssg25
S'R\xa1\xc0w\xc1`[\xea\xe5\x9b\xb2\xc0O\x9d\xc5\xc7'
p1358
ssS'app1_migrations_0017_ticket_event_date'
p1359
(dp1360
g6
(dp1361
g8
S'app1_migrations_0017_ticket_event_date.html'
p1362
sg10
S'app1/migrations/0017_ticket_event_date'
p1363
sg12
g13
(g14
g15
NtRp1364
(dp1365
g18
I1
sg19
I0
sg20
I5
sg21
I0
sg22
I0
sg23
I0
sg24
I0
sbssg25
S'\xdc\xaa\xbe\xeb\x86\x85\xc8A\x9a\xfe\x10\xad\xafC\xe5\xb9'
p1366
ssS'_usr_local_lib_python2_7_dist-packages_django_utils_six'
p1367
(dp1368
g6
(dp1369
g70
S'_usr_local_lib_python2_7_dist-packages_django_utils_six.html'
p1370
sg72
S'/usr/local/lib/python2.7/dist-packages/django/utils/six'
p1371
sg74
g13
(g14
g15
NtRp1372
(dp1373
g18
I1
sg19
I0
sg20
I355
sg21
I0
sg22
I0
sg23
I158
sg24
I0
sbssg25
S'\xb2\xb21\xac!\xe3\xab\xde\x89\xfa\xfe\xb3C\x86\xc6\xa3'
p1374
ssS'_usr_local_lib_python2_7_dist-packages_unittest2_runner'
p1375
(dp1376
g147
(dp1377
g105
S'_usr_local_lib_python2_7_dist-packages_unittest2_runner.html'
p1378
sg107
S'/usr/local/lib/python2.7/dist-packages/unittest2/runner'
p1379
sg109
g13
(g14
g15
NtRp1380
(dp1381
g18
I1
sg19
I0
sg20
I156
sg21
I0
sg22
I0
sg23
I125
sg24
I0
sbssg153
S'\x8eA\x1d\xdd\xcd\x05\xecn\x11]$\xa8\xbc\x10t\xf5'
p1382
ssS'_usr_local_lib_python2_7_dist-packages_django_core_serializers_python'
p1383
(dp1384
g6
(dp1385
g8
S'_usr_local_lib_python2_7_dist-packages_django_core_serializers_python.html'
p1386
sg10
S'/usr/local/lib/python2.7/dist-packages/django/core/serializers/python'
p1387
sg12
g13
(g14
g15
NtRp1388
(dp1389
g18
I1
sg19
I0
sg20
I89
sg21
I0
sg22
I0
sg23
I58
sg24
I0
sbssg25
S'\xa7\xda\x9d\x9f\xfa<y\x97\tmg\xb4\xe0\xceX\x9c'
p1390
ssS'_usr_local_lib_python2_7_dist-packages_django_core_checks_model_checks'
p1391
(dp1392
g6
(dp1393
g8
S'_usr_local_lib_python2_7_dist-packages_django_core_checks_model_checks.html'
p1394
sg10
S'/usr/local/lib/python2.7/dist-packages/django/core/checks/model_checks'
p1395
sg12
g13
(g14
g15
NtRp1396
(dp1397
g18
I1
sg19
I0
sg20
I28
sg21
I0
sg22
I0
sg23
I6
sg24
I0
sbssg25
S'UnZu\xe9\x0b\xcb/\xdb\x15\xbc1\xef\xba\xd3|'
p1398
ssS'_usr_local_lib_python2_7_dist-packages_testtools_runtest'
p1399
(dp1400
g147
(dp1401
g105
S'_usr_local_lib_python2_7_dist-packages_testtools_runtest.html'
p1402
sg107
S'/usr/local/lib/python2.7/dist-packages/testtools/runtest'
p1403
sg109
g13
(g14
g15
NtRp1404
(dp1405
g18
I1
sg19
I0
sg20
I90
sg21
I0
sg22
I0
sg23
I74
sg24
I0
sbssg153
S'\xfby\xc74)d\x10\x13a\xd0z\xc1\xf7\xef@\xf8'
p1406
ssS'_usr_local_lib_python2_7_dist-packages_django_contrib_admin_migrations_0001_initial'
p1407
(dp1408
g6
(dp1409
g8
S'_usr_local_lib_python2_7_dist-packages_django_contrib_admin_migrations_0001_initial.html'
p1410
sg10
S'/usr/local/lib/python2.7/dist-packages/django/contrib/admin/migrations/0001_initial'
p1411
sg12
g13
(g14
g15
NtRp1412
(dp1413
g18
I1
sg19
I0
sg20
I6
sg21
I0
sg22
I0
sg23
I0
sg24
I0
sbssg25
S'm\x83\xc2\x1chZ\xc7\xc6\xec\x14\xf5\xf9\xf0\xc6\xaf~'
p1414
ssS'_usr_local_lib_python2_7_dist-packages_django_views_static'
p1415
(dp1416
g6
(dp1417
g8
S'_usr_local_lib_python2_7_dist-packages_django_views_static.html'
p1418
sg10
S'/usr/local/lib/python2.7/dist-packages/django/views/static'
p1419
sg12
g13
(g14
g15
NtRp1420
(dp1421
g18
I1
sg19
I0
sg20
I73
sg21
I0
sg22
I0
sg23
I57
sg24
I0
sbssg25
S'Bq\n\x9d\xc2\x13\xf7Eg\x8f\xba\xe2\xcc\xec\xbd\x9c'
p1422
ssS'_usr_local_lib_python2_7_dist-packages_django_contrib_messages_storage_base'
p1423
(dp1424
g6
(dp1425
g8
S'_usr_local_lib_python2_7_dist-packages_django_contrib_messages_storage_base.html'
p1426
sg10
S'/usr/local/lib/python2.7/dist-packages/django/contrib/messages/storage/base'
p1427
sg12
g13
(g14
g15
NtRp1428
(dp1429
g18
I1
sg19
I0
sg20
I84
sg21
I0
sg22
I0
sg23
I47
sg24
I0
sbssg25
S'\x05\x94\xa5\x19kl-r\x89\xdd\x11\x83|\x82ac'
p1430
ssS'app1_migrations_0005_auto_20141028_1544'
p1431
(dp1432
g6
(dp1433
g8
S'app1_migrations_0005_auto_20141028_1544.html'
p1434
sg10
S'app1/migrations/0005_auto_20141028_1544'
p1435
sg12
g13
(g14
g15
NtRp1436
(dp1437
g18
I1
sg19
I0
sg20
I5
sg21
I0
sg22
I0
sg23
I0
sg24
I0
sbssg25
S'cM\xd7\xae\xd8\xb7SX\xc4\xfak\xa2\xed\xf8ua'
p1438
ssS'_usr_local_lib_python2_7_dist-packages_django_contrib_staticfiles_management___init__'
p1439
(dp1440
g6
(dp1441
g8
S'_usr_local_lib_python2_7_dist-packages_django_contrib_staticfiles_management___init__.html'
p1442
sg10
S'/usr/local/lib/python2.7/dist-packages/django/contrib/staticfiles/management/__init__'
p1443
sg12
g13
(g14
g15
NtRp1444
(dp1445
g18
I1
sg19
I0
sg20
I0
sg21
I0
sg22
I0
sg23
I0
sg24
I0
sbssg25
S'\xca\xf5\x9f\x7f\x88\xdfa\x831|T\x1d\xbc}\xa5v'
p1446
ssS'_usr_local_lib_python2_7_dist-packages_django_views_decorators_csrf'
p1447
(dp1448
g6
(dp1449
g8
S'_usr_local_lib_python2_7_dist-packages_django_views_decorators_csrf.html'
p1450
sg10
S'/usr/local/lib/python2.7/dist-packages/django/views/decorators/csrf'
p1451
sg12
g13
(g14
g15
NtRp1452
(dp1453
g18
I1
sg19
I0
sg20
I27
sg21
I0
sg22
I0
sg23
I9
sg24
I0
sbssg25
S'M\x92\xd4#8<\xf6\x8f>&\xa6\xd02m\x0e\x1d'
p1454
ssS'_usr_local_lib_python2_7_dist-packages_lettuce_fs'
p1455
(dp1456
g147
(dp1457
g105
S'_usr_local_lib_python2_7_dist-packages_lettuce_fs.html'
p1458
sg107
S'/usr/local/lib/python2.7/dist-packages/lettuce/fs'
p1459
sg109
g13
(g14
g15
NtRp1460
(dp1461
g18
I1
sg19
I0
sg20
I143
sg21
I0
sg22
I0
sg23
I98
sg24
I0
sbssg153
S'P\x8e\xc3$\xae\xc7\x81\x83\xd5)\xcd\xbf3\x00:E'
p1462
ssS'_usr_local_lib_python2_7_dist-packages_django_templatetags_static'
p1463
(dp1464
g221
(dp1465
g70
S'_usr_local_lib_python2_7_dist-packages_django_templatetags_static.html'
p1466
sg72
S'/usr/local/lib/python2.7/dist-packages/django/templatetags/static'
p1467
sg74
g13
(g14
g15
NtRp1468
(dp1469
g18
I1
sg19
I0
sg20
I68
sg21
I0
sg22
I0
sg23
I31
sg24
I0
sbssg227
S'\xb0}\x18Z\xb9\xea\xa3\x10\x11i\x1d<\x16\xd5\xf2\xff'
p1470
ssS'_usr_local_lib_python2_7_dist-packages_django_utils_dates'
p1471
(dp1472
g6
(dp1473
g8
S'_usr_local_lib_python2_7_dist-packages_django_utils_dates.html'
p1474
sg10
S'/usr/local/lib/python2.7/dist-packages/django/utils/dates'
p1475
sg12
g13
(g14
g15
NtRp1476
(dp1477
g18
I1
sg19
I0
sg20
I9
sg21
I0
sg22
I0
sg23
I0
sg24
I0
sbssg25
S'\xfb\xce\xe0\x8c\x1a\x0e=\xf2u\xe1UP\xf3&\xfcB'
p1478
ssS'_usr_local_lib_python2_7_dist-packages_django_http_request'
p1479
(dp1480
g6
(dp1481
g70
S'_usr_local_lib_python2_7_dist-packages_django_http_request.html'
p1482
sg72
S'/usr/local/lib/python2.7/dist-packages/django/http/request'
p1483
sg74
g13
(g14
g15
NtRp1484
(dp1485
g18
I1
sg19
I0
sg20
I306
sg21
I0
sg22
I0
sg23
I128
sg24
I0
sbssg25
S'[B\xc0\xaab\xf4"6\x96\x9bHGO\xbf\xe4,'
p1486
ssS'userprofile_tests'
p1487
(dp1488
g6
(dp1489
g8
S'userprofile_tests.html'
p1490
sg10
S'userprofile/tests'
p1491
sg12
g13
(g14
g15
NtRp1492
(dp1493
g18
I1
sg19
I0
sg20
I19
sg21
I0
sg22
I0
sg23
I0
sg24
I0
sbssg25
S'\xa8y-6a\x11\x95Am{\xe55\xf1\x1b6N'
p1494
ssS'_usr_local_lib_python2_7_dist-packages_django_core_management_commands_createcachetable'
p1495
(dp1496
g6
(dp1497
g8
S'_usr_local_lib_python2_7_dist-packages_django_core_management_commands_createcachetable.html'
p1498
sg10
S'/usr/local/lib/python2.7/dist-packages/django/core/management/commands/createcachetable'
p1499
sg12
g13
(g14
g15
NtRp1500
(dp1501
g18
I1
sg19
I0
sg20
I60
sg21
I0
sg22
I0
sg23
I40
sg24
I0
sbssg25
S'\xa1BWa\x1b\t\xcd-\xb0pp\xc9\xdaQ -'
p1502
ssS'_usr_local_lib_python2_7_dist-packages_django_utils_regex_helper'
p1503
(dp1504
g6
(dp1505
g8
S'_usr_local_lib_python2_7_dist-packages_django_utils_regex_helper.html'
p1506
sg10
S'/usr/local/lib/python2.7/dist-packages/django/utils/regex_helper'
p1507
sg12
g13
(g14
g15
NtRp1508
(dp1509
g18
I1
sg19
I0
sg20
I188
sg21
I0
sg22
I0
sg23
I90
sg24
I0
sbssg25
S'\x9d\xed\x12\xb7\xa7\xben\x0fv\xcb\xed\xe7\x8b\xd9\xfdZ'
p1510
ssS'_usr_local_lib_python2_7_dist-packages_django_core_servers___init__'
p1511
(dp1512
g6
(dp1513
g8
S'_usr_local_lib_python2_7_dist-packages_django_core_servers___init__.html'
p1514
sg10
S'/usr/local/lib/python2.7/dist-packages/django/core/servers/__init__'
p1515
sg12
g13
(g14
g15
NtRp1516
(dp1517
g18
I1
sg19
I0
sg20
I0
sg21
I0
sg22
I0
sg23
I0
sg24
I0
sbssg25
S'\xca\xf5\x9f\x7f\x88\xdfa\x831|T\x1d\xbc}\xa5v'
p1518
ssS'_usr_local_lib_python2_7_dist-packages_django_contrib_sessions_apps'
p1519
(dp1520
g6
(dp1521
g8
S'_usr_local_lib_python2_7_dist-packages_django_contrib_sessions_apps.html'
p1522
sg10
S'/usr/local/lib/python2.7/dist-packages/django/contrib/sessions/apps'
p1523
sg12
g13
(g14
g15
NtRp1524
(dp1525
g18
I1
sg19
I0
sg20
I5
sg21
I0
sg22
I0
sg23
I0
sg24
I0
sbssg25
S'\xe9\xb9\xdeKDm\xd7D\x86x\x1e\x01\xa4a\xf19'
p1526
ssS'_usr_local_lib_python2_7_dist-packages_django_utils_http'
p1527
(dp1528
g6
(dp1529
g288
S'_usr_local_lib_python2_7_dist-packages_django_utils_http.html'
p1530
sg290
S'/usr/local/lib/python2.7/dist-packages/django/utils/http'
p1531
sg292
g13
(g14
g15
NtRp1532
(dp1533
g18
I1
sg19
I0
sg20
I134
sg21
I0
sg22
I0
sg23
I81
sg24
I0
sbssg25
S')\xc1\xfe\x9f\x1a\n\x9e\xbf\xeb%\x85\xe0\xf7\x8cY\xf8'
p1534
ssS'_usr_local_lib_python2_7_dist-packages_django_core_serializers_json'
p1535
(dp1536
g6
(dp1537
g8
S'_usr_local_lib_python2_7_dist-packages_django_core_serializers_json.html'
p1538
sg10
S'/usr/local/lib/python2.7/dist-packages/django/core/serializers/json'
p1539
sg12
g13
(g14
g15
NtRp1540
(dp1541
g18
I1
sg19
I0
sg20
I76
sg21
I0
sg22
I0
sg23
I36
sg24
I0
sbssg25
S'\xb3"\x8d\xec\x0cU\xb4`\t&}$u0\x06\x96'
p1542
ssS'_usr_local_lib_python2_7_dist-packages_django_contrib_admin_templatetags_admin_urls'
p1543
(dp1544
g6
(dp1545
g8
S'_usr_local_lib_python2_7_dist-packages_django_contrib_admin_templatetags_admin_urls.html'
p1546
sg10
S'/usr/local/lib/python2.7/dist-packages/django/contrib/admin/templatetags/admin_urls'
p1547
sg12
g13
(g14
g15
NtRp1548
(dp1549
g18
I1
sg19
I0
sg20
I38
sg21
I0
sg22
I0
sg23
I28
sg24
I0
sbssg25
S'\xb6n!\xf6\x91\xd2\xb1\x9d\xad\x04\xbb\xf61D\xc9o'
p1550
ssS'_usr_local_lib_python2_7_dist-packages_django_utils_translation_trans_real'
p1551
(dp1552
g6
(dp1553
g8
S'_usr_local_lib_python2_7_dist-packages_django_utils_translation_trans_real.html'
p1554
sg10
S'/usr/local/lib/python2.7/dist-packages/django/utils/translation/trans_real'
p1555
sg12
g13
(g14
g15
NtRp1556
(dp1557
g18
I1
sg19
I0
sg20
I432
sg21
I0
sg22
I0
sg23
I276
sg24
I0
sbssg25
S'\x06h\x80\x9f\xc8\xe3L^\xf7\x06\x03\xcc\xa8\xf3\xfa~'
p1558
ssS'_usr_local_lib_python2_7_dist-packages_django_core_handlers___init__'
p1559
(dp1560
g6
(dp1561
g8
S'_usr_local_lib_python2_7_dist-packages_django_core_handlers___init__.html'
p1562
sg10
S'/usr/local/lib/python2.7/dist-packages/django/core/handlers/__init__'
p1563
sg12
g13
(g14
g15
NtRp1564
(dp1565
g18
I1
sg19
I0
sg20
I0
sg21
I0
sg22
I0
sg23
I0
sg24
I0
sbssg25
S'\xca\xf5\x9f\x7f\x88\xdfa\x831|T\x1d\xbc}\xa5v'
p1566
ssS'_usr_local_lib_python2_7_dist-packages_django_utils_baseconv'
p1567
(dp1568
g6
(dp1569
g8
S'_usr_local_lib_python2_7_dist-packages_django_utils_baseconv.html'
p1570
sg10
S'/usr/local/lib/python2.7/dist-packages/django/utils/baseconv'
p1571
sg12
g13
(g14
g15
NtRp1572
(dp1573
g18
I1
sg19
I0
sg20
I48
sg21
I0
sg22
I0
sg23
I25
sg24
I0
sbssg25
S'\xd5\xdfo\x02\x03\xa3\x0eD\xac^h\x99\x8e,E{'
p1574
ssS'_usr_local_lib_python2_7_dist-packages_django_core_cache_backends_locmem'
p1575
(dp1576
g6
(dp1577
g8
S'_usr_local_lib_python2_7_dist-packages_django_core_cache_backends_locmem.html'
p1578
sg10
S'/usr/local/lib/python2.7/dist-packages/django/core/cache/backends/locmem'
p1579
sg12
g13
(g14
g15
NtRp1580
(dp1581
g18
I1
sg19
I0
sg20
I108
sg21
I0
sg22
I0
sg23
I81
sg24
I0
sbssg25
S"\x04'\x07\x06I\x0e\xa96G\xd8\x94w\x0b\x08Z\xe9"
p1582
ssS'_usr_local_lib_python2_7_dist-packages_django_utils_deprecation'
p1583
(dp1584
g6
(dp1585
g8
S'_usr_local_lib_python2_7_dist-packages_django_utils_deprecation.html'
p1586
sg10
S'/usr/local/lib/python2.7/dist-packages/django/utils/deprecation'
p1587
sg12
g13
(g14
g15
NtRp1588
(dp1589
g18
I1
sg19
I0
sg20
I38
sg21
I0
sg22
I0
sg23
I5
sg24
I0
sbssg25
S"P\xfd'\x10\xad;\xf5\xbd>,o\x85\x95\xfd\xfc\xed"
p1590
ssS'_usr_local_lib_python2_7_dist-packages_django_contrib_auth_models'
p1591
(dp1592
g6
(dp1593
g70
S'_usr_local_lib_python2_7_dist-packages_django_contrib_auth_models.html'
p1594
sg72
S'/usr/local/lib/python2.7/dist-packages/django/contrib/auth/models'
p1595
sg74
g13
(g14
g15
NtRp1596
(dp1597
g18
I1
sg19
I0
sg20
I236
sg21
I0
sg22
I0
sg23
I74
sg24
I0
sbssg25
S'\xcd\xa2^\xdb\xc2~\xd7\x19\xdf\xcf\x0b\x9a\xae\x1b\xd8I'
p1598
ssS'_usr_local_lib_python2_7_dist-packages_lettuce_plugins_smtp_mail_queue'
p1599
(dp1600
g147
(dp1601
g105
S'_usr_local_lib_python2_7_dist-packages_lettuce_plugins_smtp_mail_queue.html'
p1602
sg107
S'/usr/local/lib/python2.7/dist-packages/lettuce/plugins/smtp_mail_queue'
p1603
sg109
g13
(g14
g15
NtRp1604
(dp1605
g18
I1
sg19
I0
sg20
I72
sg21
I0
sg22
I0
sg23
I61
sg24
I0
sbssg153
S'N\xd0\x01\xe0\x03\xa4\xb7\xb6\xf5+I\x83\xe5+\xc8\xdb'
p1606
ssS'_usr_local_lib_python2_7_dist-packages_unittest2_suite'
p1607
(dp1608
g147
(dp1609
g105
S'_usr_local_lib_python2_7_dist-packages_unittest2_suite.html'
p1610
sg107
S'/usr/local/lib/python2.7/dist-packages/unittest2/suite'
p1611
sg109
g13
(g14
g15
NtRp1612
(dp1613
g18
I1
sg19
I0
sg20
I216
sg21
I0
sg22
I0
sg23
I172
sg24
I0
sbssg153
S'\xe7t\xcb.RSwR#\x1f\xc6P\x06\xa0\xe6\xaa'
p1614
ssS'_usr_local_lib_python2_7_dist-packages_django_utils_timezone'
p1615
(dp1616
g6
(dp1617
g8
S'_usr_local_lib_python2_7_dist-packages_django_utils_timezone.html'
p1618
sg10
S'/usr/local/lib/python2.7/dist-packages/django/utils/timezone'
p1619
sg12
g13
(g14
g15
NtRp1620
(dp1621
g18
I1
sg19
I0
sg20
I145
sg21
I0
sg22
I0
sg23
I77
sg24
I0
sbssg25
S',;\x9fh#"UR\xf9\xea\xd0\x8f\xcc\x01bC'
p1622
ssS'_usr_local_lib_python2_7_dist-packages_django_core_files_move'
p1623
(dp1624
g6
(dp1625
g8
S'_usr_local_lib_python2_7_dist-packages_django_core_files_move.html'
p1626
sg10
S'/usr/local/lib/python2.7/dist-packages/django/core/files/move'
p1627
sg12
g13
(g14
g15
NtRp1628
(dp1629
g18
I1
sg19
I0
sg20
I47
sg21
I0
sg22
I0
sg23
I40
sg24
I0
sbssg25
S'0\xbb\xaeZ\xe7X\xe5\xdf\xeeB\x95\xa1e\xd3\x0f\xb1'
p1630
ssS'_usr_local_lib_python2_7_dist-packages_testtools_matchers__impl'
p1631
(dp1632
g147
(dp1633
g105
S'_usr_local_lib_python2_7_dist-packages_testtools_matchers__impl.html'
p1634
sg107
S'/usr/local/lib/python2.7/dist-packages/testtools/matchers/_impl'
p1635
sg109
g13
(g14
g15
NtRp1636
(dp1637
g18
I1
sg19
I0
sg20
I53
sg21
I0
sg22
I0
sg23
I30
sg24
I0
sbssg153
S'\x12\xc4Q\xe9\xa2\xa1T&\x8e\xf3\x8d@L\xb8\x15\xbc'
p1638
ssS'app1_migrations_0012_event_ticket'
p1639
(dp1640
g6
(dp1641
g8
S'app1_migrations_0012_event_ticket.html'
p1642
sg10
S'app1/migrations/0012_event_ticket'
p1643
sg12
g13
(g14
g15
NtRp1644
(dp1645
g18
I1
sg19
I0
sg20
I5
sg21
I0
sg22
I0
sg23
I0
sg24
I0
sbssg25
S'N\x94\xf5\xd6\x06\xd8\xfb\xd8=\xdf\x97_\xa6%\xcf\x8e'
p1646
ssS'_usr_local_lib_python2_7_dist-packages_django_template_debug'
p1647
(dp1648
g6
(dp1649
g8
S'_usr_local_lib_python2_7_dist-packages_django_template_debug.html'
p1650
sg10
S'/usr/local/lib/python2.7/dist-packages/django/template/debug'
p1651
sg12
g13
(g14
g15
NtRp1652
(dp1653
g18
I1
sg19
I0
sg20
I81
sg21
I0
sg22
I0
sg23
I21
sg24
I0
sbssg25
S'\xb9\xd2\xb5Zxl\x8d\x94\xe6\xe5\xeah\xdb\xbf\x92w'
p1654
ssS'cse360_webapp_forms'
p1655
(dp1656
g6
(dp1657
g8
S'cse360_webapp_forms.html'
p1658
sg10
S'cse360_webapp/forms'
p1659
sg12
g13
(g14
g15
NtRp1660
(dp1661
g18
I1
sg19
I0
sg20
I18
sg21
I0
sg22
I0
sg23
I4
sg24
I0
sbssg25
S'pbg\x15d\xc1sO\xaf\xd0\xbd\xa8\xb2\xedQ\xf9'
p1662
ssS'_usr_local_lib_python2_7_dist-packages_django_contrib_contenttypes_management'
p1663
(dp1664
g6
(dp1665
g8
S'_usr_local_lib_python2_7_dist-packages_django_contrib_contenttypes_management.html'
p1666
sg10
S'/usr/local/lib/python2.7/dist-packages/django/contrib/contenttypes/management'
p1667
sg12
g13
(g14
g15
NtRp1668
(dp1669
g18
I1
sg19
I0
sg20
I45
sg21
I0
sg22
I0
sg23
I21
sg24
I0
sbssg25
S'BF\xc3z,\x7f\xa05\xf1\xef\xbf\x0e)\x04\x02\x16'
p1670
ssS'_usr_local_lib_python2_7_dist-packages_django_contrib_auth_decorators'
p1671
(dp1672
g6
(dp1673
g70
S'_usr_local_lib_python2_7_dist-packages_django_contrib_auth_decorators.html'
p1674
sg72
S'/usr/local/lib/python2.7/dist-packages/django/contrib/auth/decorators'
p1675
sg74
g13
(g14
g15
NtRp1676
(dp1677
g18
I1
sg19
I0
sg20
I39
sg21
I0
sg22
I0
sg23
I11
sg24
I0
sbssg25
S'< \xce\x85\xa3(\xe4 \xcf\x9eLk~\xd2\x98\xd8'
p1678
ssS'_usr_local_lib_python2_7_dist-packages_django_core_paginator'
p1679
(dp1680
g6
(dp1681
g8
S'_usr_local_lib_python2_7_dist-packages_django_core_paginator.html'
p1682
sg10
S'/usr/local/lib/python2.7/dist-packages/django/core/paginator'
p1683
sg12
g13
(g14
g15
NtRp1684
(dp1685
g18
I1
sg19
I0
sg20
I90
sg21
I0
sg22
I0
sg23
I57
sg24
I0
sbssg25
S'}\x07\xf2\xb5\x17\x11\xea\xd0\xb8{q\xc30\x8c\x83\xc1'
p1686
ssS'_usr_local_lib_python2_7_dist-packages_subunit_iso8601'
p1687
(dp1688
g147
(dp1689
g105
S'_usr_local_lib_python2_7_dist-packages_subunit_iso8601.html'
p1690
sg107
S'/usr/local/lib/python2.7/dist-packages/subunit/iso8601'
p1691
sg109
g13
(g14
g15
NtRp1692
(dp1693
g18
I1
sg19
I0
sg20
I59
sg21
I0
sg22
I0
sg23
I31
sg24
I0
sbssg153
S'\x8d\x0f\x13g9\xb4\x15)\xc5\xb7\xfau\xe5\xc1T\r'
p1694
ssS'_usr_local_lib_python2_7_dist-packages_django_contrib_auth_migrations_0001_initial'
p1695
(dp1696
g6
(dp1697
g8
S'_usr_local_lib_python2_7_dist-packages_django_contrib_auth_migrations_0001_initial.html'
p1698
sg10
S'/usr/local/lib/python2.7/dist-packages/django/contrib/auth/migrations/0001_initial'
p1699
sg12
g13
(g14
g15
NtRp1700
(dp1701
g18
I1
sg19
I0
sg20
I7
sg21
I0
sg22
I0
sg23
I0
sg24
I0
sbssg25
S'\xa8J\xc1\x1d&\xe7\xd1\x0f<\xe6q\xdc\x88\x00}\xab'
p1702
ssS'_usr_local_lib_python2_7_dist-packages_django_core_management_color'
p1703
(dp1704
g6
(dp1705
g8
S'_usr_local_lib_python2_7_dist-packages_django_core_management_color.html'
p1706
sg10
S'/usr/local/lib/python2.7/dist-packages/django/core/management/color'
p1707
sg12
g13
(g14
g15
NtRp1708
(dp1709
g18
I1
sg19
I0
sg20
I30
sg21
I0
sg22
I0
sg23
I4
sg24
I0
sbssg25
S'\xcde#c\xac9\xe1\x04\x04M\xa6B\xf3\x92AI'
p1710
ssS'_usr_local_lib_python2_7_dist-packages_django_core_serializers_xml_serializer'
p1711
(dp1712
g6
(dp1713
g8
S'_usr_local_lib_python2_7_dist-packages_django_core_serializers_xml_serializer.html'
p1714
sg10
S'/usr/local/lib/python2.7/dist-packages/django/core/serializers/xml_serializer'
p1715
sg12
g13
(g14
g15
NtRp1716
(dp1717
g18
I1
sg19
I0
sg20
I212
sg21
I0
sg22
I0
sg23
I165
sg24
I0
sbssg25
S'D\x93\xaf\x0c\x11\xea\x1f\xe3CT\x93T> \xd0\x13'
p1718
ssS'_usr_local_lib_python2_7_dist-packages_django_http_cookie'
p1719
(dp1720
g6
(dp1721
g70
S'_usr_local_lib_python2_7_dist-packages_django_http_cookie.html'
p1722
sg72
S'/usr/local/lib/python2.7/dist-packages/django/http/cookie'
p1723
sg74
g13
(g14
g15
NtRp1724
(dp1725
g18
I1
sg19
I0
sg20
I55
sg21
I0
sg22
I0
sg23
I17
sg24
I0
sbssg25
S'+\xbd\xfb\x02VA\xaer\xab\x87t\x9f\x9aWo\n'
p1726
ssS'_usr_local_lib_python2_7_dist-packages_django_middleware_clickjacking'
p1727
(dp1728
g6
(dp1729
g8
S'_usr_local_lib_python2_7_dist-packages_django_middleware_clickjacking.html'
p1730
sg10
S'/usr/local/lib/python2.7/dist-packages/django/middleware/clickjacking'
p1731
sg12
g13
(g14
g15
NtRp1732
(dp1733
g18
I1
sg19
I0
sg20
I11
sg21
I0
sg22
I0
sg23
I2
sg24
I0
sbssg25
S'?\x8ayY\xa24Kw\x89\x05z?\xd9\xcf\xb8\xff'
p1734
ssS'userprofile_forms'
p1735
(dp1736
g6
(dp1737
g8
S'userprofile_forms.html'
p1738
sg10
S'userprofile/forms'
p1739
sg12
g13
(g14
g15
NtRp1740
(dp1741
g18
I1
sg19
I0
sg20
I6
sg21
I0
sg22
I0
sg23
I0
sg24
I0
sbssg25
S'\x03w5\x8a\xee\x0b` q\x16\xdc+\x00\x0e\x86\xa8'
p1742
ssS'_usr_local_lib_python2_7_dist-packages_django_utils___init__'
p1743
(dp1744
g6
(dp1745
g8
S'_usr_local_lib_python2_7_dist-packages_django_utils___init__.html'
p1746
sg10
S'/usr/local/lib/python2.7/dist-packages/django/utils/__init__'
p1747
sg12
g13
(g14
g15
NtRp1748
(dp1749
g18
I1
sg19
I0
sg20
I0
sg21
I0
sg22
I0
sg23
I0
sg24
I0
sbssg25
S'\xca\xf5\x9f\x7f\x88\xdfa\x831|T\x1d\xbc}\xa5v'
p1750
ssS'_usr_local_lib_python2_7_dist-packages_django_db_transaction'
p1751
(dp1752
g6
(dp1753
g8
S'_usr_local_lib_python2_7_dist-packages_django_db_transaction.html'
p1754
sg10
S'/usr/local/lib/python2.7/dist-packages/django/db/transaction'
p1755
sg12
g13
(g14
g15
NtRp1756
(dp1757
g18
I1
sg19
I0
sg20
I207
sg21
I0
sg22
I0
sg23
I112
sg24
I0
sbssg25
S'\xe1\x02\x01\xe9\xdaS\x8c(\xe9\xe7\xc7c\xa8,\xa0?'
p1758
ssS'_usr_local_lib_python2_7_dist-packages_django_template_loader'
p1759
(dp1760
g6
(dp1761
g8
S'_usr_local_lib_python2_7_dist-packages_django_template_loader.html'
p1762
sg10
S'/usr/local/lib/python2.7/dist-packages/django/template/loader'
p1763
sg12
g13
(g14
g15
NtRp1764
(dp1765
g18
I1
sg19
I0
sg20
I95
sg21
I0
sg22
I0
sg23
I33
sg24
I0
sbssg25
S'\xc4,\xf7\x89\xb4 #\x15\xe2\xbf(\xa7\x99k\x9e\x9c'
p1766
ssS'_usr_local_lib_python2_7_dist-packages_django_forms_widgets'
p1767
(dp1768
g6
(dp1769
g70
S'_usr_local_lib_python2_7_dist-packages_django_forms_widgets.html'
p1770
sg72
S'/usr/local/lib/python2.7/dist-packages/django/forms/widgets'
p1771
sg74
g13
(g14
g15
NtRp1772
(dp1773
g18
I1
sg19
I0
sg20
I508
sg21
I0
sg22
I0
sg23
I272
sg24
I0
sbssg25
S'\x08\x92\xfe\xae\xa8\xad\x97\xe1F\x04d\\\x88\xf3\xb2!'
p1774
ssS'_usr_local_lib_python2_7_dist-packages_django_core_mail___init__'
p1775
(dp1776
g6
(dp1777
g8
S'_usr_local_lib_python2_7_dist-packages_django_core_mail___init__.html'
p1778
sg10
S'/usr/local/lib/python2.7/dist-packages/django/core/mail/__init__'
p1779
sg12
g13
(g14
g15
NtRp1780
(dp1781
g18
I1
sg19
I0
sg20
I33
sg21
I0
sg22
I0
sg23
I22
sg24
I0
sbssg25
S'\xe9\xab\x14M=\x19?\x03\xec\xf3\xfa\x8b?\x02~\xd6'
p1782
ssS'cse360_webapp_tests'
p1783
(dp1784
g221
(dp1785
g288
S'cse360_webapp_tests.html'
p1786
sg290
S'cse360_webapp/tests'
p1787
sg292
g13
(g14
g15
NtRp1788
(dp1789
g18
I1
sg19
I0
sg20
I54
sg21
I0
sg22
I0
sg23
I0
sg24
I0
sbssg227
S'!W.\xa7"\x05a\xe1t\x88\xb0\xdcG\xf0\xbc\x01'
p1790
ssS'_usr_local_lib_python2_7_dist-packages_django_utils_dateformat'
p1791
(dp1792
g6
(dp1793
g70
S'_usr_local_lib_python2_7_dist-packages_django_utils_dateformat.html'
p1794
sg72
S'/usr/local/lib/python2.7/dist-packages/django/utils/dateformat'
p1795
sg74
g13
(g14
g15
NtRp1796
(dp1797
g18
I1
sg19
I0
sg20
I184
sg21
I0
sg22
I0
sg23
I96
sg24
I0
sbssg25
S'\x16\xe3\x80\x86A\x01\x8c\xe8=\xfd\xf5v\xb0\xff\xd5\xcf'
p1798
ssS'_usr_local_lib_python2_7_dist-packages_django_contrib_contenttypes_migrations___init__'
p1799
(dp1800
g6
(dp1801
g8
S'_usr_local_lib_python2_7_dist-packages_django_contrib_contenttypes_migrations___init__.html'
p1802
sg10
S'/usr/local/lib/python2.7/dist-packages/django/contrib/contenttypes/migrations/__init__'
p1803
sg12
g13
(g14
g15
NtRp1804
(dp1805
g18
I1
sg19
I0
sg20
I0
sg21
I0
sg22
I0
sg23
I0
sg24
I0
sbssg25
S'\xca\xf5\x9f\x7f\x88\xdfa\x831|T\x1d\xbc}\xa5v'
p1806
ssS'_usr_local_lib_python2_7_dist-packages_django_core_wsgi'
p1807
(dp1808
g6
(dp1809
g8
S'_usr_local_lib_python2_7_dist-packages_django_core_wsgi.html'
p1810
sg10
S'/usr/local/lib/python2.7/dist-packages/django/core/wsgi'
p1811
sg12
g13
(g14
g15
NtRp1812
(dp1813
g18
I1
sg19
I0
sg20
I5
sg21
I0
sg22
I0
sg23
I2
sg24
I0
sbssg25
S'\xcb\xa3\x0c\x90\xbe|\xe5}\x13v\x9f[m\xed\x86\xda'
p1814
ssS'userprofile_models'
p1815
(dp1816
g6
(dp1817
g8
S'userprofile_models.html'
p1818
sg10
S'userprofile/models'
p1819
sg12
g13
(g14
g15
NtRp1820
(dp1821
g18
I1
sg19
I0
sg20
I9
sg21
I0
sg22
I0
sg23
I0
sg24
I0
sbssg25
S'z-\xd8J\x88K\xf9\x87\xb6\x87/\x1e\xbdA\xbd\x98'
p1822
ssS'_usr_local_lib_python2_7_dist-packages_django_contrib_messages_storage_fallback'
p1823
(dp1824
g6
(dp1825
g8
S'_usr_local_lib_python2_7_dist-packages_django_contrib_messages_storage_fallback.html'
p1826
sg10
S'/usr/local/lib/python2.7/dist-packages/django/contrib/messages/storage/fallback'
p1827
sg12
g13
(g14
g15
NtRp1828
(dp1829
g18
I1
sg19
I0
sg20
I29
sg21
I0
sg22
I0
sg23
I18
sg24
I0
sbssg25
S'.\xc9\x11yT\xbe\xa2@\xfb\xb6"L\xdc\xd2\x01\x98'
p1830
ssS'_usr_local_lib_python2_7_dist-packages_django_db_migrations_operations_special'
p1831
(dp1832
g6
(dp1833
g8
S'_usr_local_lib_python2_7_dist-packages_django_db_migrations_operations_special.html'
p1834
sg10
S'/usr/local/lib/python2.7/dist-packages/django/db/migrations/operations/special'
p1835
sg12
g13
(g14
g15
NtRp1836
(dp1837
g18
I1
sg19
I0
sg20
I72
sg21
I0
sg22
I0
sg23
I49
sg24
I0
sbssg25
S'\xf3J\xc3\xa9\xd9\xc2d\xbdCK\xef\xcen9g8'
p1838
ssS'_usr_local_lib_python2_7_dist-packages_django_conf___init__'
p1839
(dp1840
g6
(dp1841
g8
S'_usr_local_lib_python2_7_dist-packages_django_conf___init__.html'
p1842
sg10
S'/usr/local/lib/python2.7/dist-packages/django/conf/__init__'
p1843
sg12
g13
(g14
g15
NtRp1844
(dp1845
g18
I1
sg19
I0
sg20
I88
sg21
I0
sg22
I0
sg23
I30
sg24
I0
sbssg25
S'\xe5\xbd\xe0\xd5U\xec\xc3\x00/q\xc1%]y\xaa\x90'
p1846
ssS'_usr_local_lib_python2_7_dist-packages_django_contrib_sessions_backends___init__'
p1847
(dp1848
g6
(dp1849
g8
S'_usr_local_lib_python2_7_dist-packages_django_contrib_sessions_backends___init__.html'
p1850
sg10
S'/usr/local/lib/python2.7/dist-packages/django/contrib/sessions/backends/__init__'
p1851
sg12
g13
(g14
g15
NtRp1852
(dp1853
g18
I1
sg19
I0
sg20
I0
sg21
I0
sg22
I0
sg23
I0
sg24
I0
sbssg25
S'\xca\xf5\x9f\x7f\x88\xdfa\x831|T\x1d\xbc}\xa5v'
p1854
ssS'_usr_local_lib_python2_7_dist-packages_django_test_html'
p1855
(dp1856
g6
(dp1857
g8
S'_usr_local_lib_python2_7_dist-packages_django_test_html.html'
p1858
sg10
S'/usr/local/lib/python2.7/dist-packages/django/test/html'
p1859
sg12
g13
(g14
g15
NtRp1860
(dp1861
g18
I1
sg19
I0
sg20
I167
sg21
I0
sg22
I0
sg23
I128
sg24
I0
sbssg25
S'\xc1wD\x836\xc5uF\x9a\xd0\x7f\x9c\xe1\xbe\x8em'
p1862
ssS'_usr_local_lib_python2_7_dist-packages_unittest2_result'
p1863
(dp1864
g147
(dp1865
g105
S'_usr_local_lib_python2_7_dist-packages_unittest2_result.html'
p1866
sg107
S'/usr/local/lib/python2.7/dist-packages/unittest2/result'
p1867
sg109
g13
(g14
g15
NtRp1868
(dp1869
g18
I1
sg19
I0
sg20
I119
sg21
I0
sg22
I0
sg23
I86
sg24
I0
sbssg153
S'\xd0+\x87\xe5d\xcb0=\xb2"c\x8c\xa6\x85\xd6\x0e'
p1870
ssS'_usr_local_lib_python2_7_dist-packages_django_conf_locale_en___init__'
p1871
(dp1872
g6
(dp1873
g8
S'_usr_local_lib_python2_7_dist-packages_django_conf_locale_en___init__.html'
p1874
sg10
S'/usr/local/lib/python2.7/dist-packages/django/conf/locale/en/__init__'
p1875
sg12
g13
(g14
g15
NtRp1876
(dp1877
g18
I1
sg19
I0
sg20
I0
sg21
I0
sg22
I0
sg23
I0
sg24
I0
sbssg25
S'\xca\xf5\x9f\x7f\x88\xdfa\x831|T\x1d\xbc}\xa5v'
p1878
ssS'_usr_local_lib_python2_7_dist-packages_django_core_servers_basehttp'
p1879
(dp1880
g6
(dp1881
g8
S'_usr_local_lib_python2_7_dist-packages_django_core_servers_basehttp.html'
p1882
sg10
S'/usr/local/lib/python2.7/dist-packages/django/core/servers/basehttp'
p1883
sg12
g13
(g14
g15
NtRp1884
(dp1885
g18
I1
sg19
I0
sg20
I88
sg21
I0
sg22
I0
sg23
I58
sg24
I0
sbssg25
S'\x02\xa0,\x15vA$\xf8_\xe4\x86\x0cp\x9dw\x98'
p1886
ssS'_usr_local_lib_python2_7_dist-packages_lettuce_plugins_xunit_output'
p1887
(dp1888
g147
(dp1889
g105
S'_usr_local_lib_python2_7_dist-packages_lettuce_plugins_xunit_output.html'
p1890
sg107
S'/usr/local/lib/python2.7/dist-packages/lettuce/plugins/xunit_output'
p1891
sg109
g13
(g14
g15
NtRp1892
(dp1893
g18
I1
sg19
I0
sg20
I73
sg21
I0
sg22
I0
sg23
I64
sg24
I0
sbssg153
S"\x06R\xaa\x02\x98\xa3\xef'w\x02Uz\x15\x93\x01\xcc"
p1894
ssS'_usr_local_lib_python2_7_dist-packages_testtools_content_type'
p1895
(dp1896
g147
(dp1897
g105
S'_usr_local_lib_python2_7_dist-packages_testtools_content_type.html'
p1898
sg107
S'/usr/local/lib/python2.7/dist-packages/testtools/content_type'
p1899
sg109
g13
(g14
g15
NtRp1900
(dp1901
g18
I1
sg19
I0
sg20
I20
sg21
I0
sg22
I0
sg23
I9
sg24
I0
sbssg153
S'\x03\x8d\x87v!\x1c~2~\xa3\xa7\xbeM@]='
p1902
ssS'_usr_local_lib_python2_7_dist-packages_django_contrib_contenttypes_migrations_0001_initial'
p1903
(dp1904
g6
(dp1905
g8
S'_usr_local_lib_python2_7_dist-packages_django_contrib_contenttypes_migrations_0001_initial.html'
p1906
sg10
S'/usr/local/lib/python2.7/dist-packages/django/contrib/contenttypes/migrations/0001_initial'
p1907
sg12
g13
(g14
g15
NtRp1908
(dp1909
g18
I1
sg19
I0
sg20
I5
sg21
I0
sg22
I0
sg23
I0
sg24
I0
sbssg25
S'hY9\xebs\xee\x9c\xe0\xed\x1f\xd4\xecD\x1d\x8b\xd8'
p1910
ssS'_usr_local_lib_python2_7_dist-packages_django_core_files_images'
p1911
(dp1912
g6
(dp1913
g8
S'_usr_local_lib_python2_7_dist-packages_django_core_files_images.html'
p1914
sg10
S'/usr/local/lib/python2.7/dist-packages/django/core/files/images'
p1915
sg12
g13
(g14
g15
NtRp1916
(dp1917
g18
I1
sg19
I0
sg20
I43
sg21
I0
sg22
I0
sg23
I34
sg24
I0
sbssg25
S'\x96\xd4\x1d\xee\xbb\x9b]\x87\x8d\xc7\x96\x0cy\xb3\x13\xf7'
p1918
ssS'_usr_local_lib_python2_7_dist-packages_django_db_utils'
p1919
(dp1920
g6
(dp1921
g8
S'_usr_local_lib_python2_7_dist-packages_django_db_utils.html'
p1922
sg10
S'/usr/local/lib/python2.7/dist-packages/django/db/utils'
p1923
sg12
g13
(g14
g15
NtRp1924
(dp1925
g18
I1
sg19
I0
sg20
I204
sg21
I0
sg22
I0
sg23
I70
sg24
I0
sbssg25
S'mDU\x0c\x08\xdar\xd6x\xc4\xcb\x14\x8f\x19AR'
p1926
ssS'userprofile___init__'
p1927
(dp1928
g6
(dp1929
g8
S'userprofile___init__.html'
p1930
sg10
S'userprofile/__init__'
p1931
sg12
g13
(g14
g15
NtRp1932
(dp1933
g18
I1
sg19
I0
sg20
I0
sg21
I0
sg22
I0
sg23
I0
sg24
I0
sbssg25
S'\xca\xf5\x9f\x7f\x88\xdfa\x831|T\x1d\xbc}\xa5v'
p1934
ssS'_usr_local_lib_python2_7_dist-packages_django_core_management_commands_loaddata'
p1935
(dp1936
g6
(dp1937
g8
S'_usr_local_lib_python2_7_dist-packages_django_core_management_commands_loaddata.html'
p1938
sg10
S'/usr/local/lib/python2.7/dist-packages/django/core/management/commands/loaddata'
p1939
sg12
g13
(g14
g15
NtRp1940
(dp1941
g18
I1
sg19
I0
sg20
I173
sg21
I0
sg22
I0
sg23
I71
sg24
I0
sbssg25
S'I\xd2c\xa3D\xab\x86h\xce\xfa\x1c\n\xdb\x19FY'
p1942
ssS'_usr_local_lib_python2_7_dist-packages_django_utils_importlib'
p1943
(dp1944
g147
(dp1945
g105
S'_usr_local_lib_python2_7_dist-packages_django_utils_importlib.html'
p1946
sg107
S'/usr/local/lib/python2.7/dist-packages/django/utils/importlib'
p1947
sg109
g13
(g14
g15
NtRp1948
(dp1949
g18
I1
sg19
I0
sg20
I29
sg21
I0
sg22
I0
sg23
I21
sg24
I0
sbssg153
S'C\xa9\x85_\x94\xae\xc0\xacT\x03<\r\xfdP\x00>'
p1950
ssS'_usr_local_lib_python2_7_dist-packages_django_contrib_messages_utils'
p1951
(dp1952
g6
(dp1953
g8
S'_usr_local_lib_python2_7_dist-packages_django_contrib_messages_utils.html'
p1954
sg10
S'/usr/local/lib/python2.7/dist-packages/django/contrib/messages/utils'
p1955
sg12
g13
(g14
g15
NtRp1956
(dp1957
g18
I1
sg19
I0
sg20
I6
sg21
I0
sg22
I0
sg23
I0
sg24
I0
sbssg25
S'\xee\xe6V\xce4\x04\x08y\xc9\xf2\xff\xc9T\xbc?\xa1'
p1958
ssS'_usr_local_lib_python2_7_dist-packages_testtools__compat2x'
p1959
(dp1960
g147
(dp1961
g105
S'_usr_local_lib_python2_7_dist-packages_testtools__compat2x.html'
p1962
sg107
S'/usr/local/lib/python2.7/dist-packages/testtools/_compat2x'
p1963
sg109
g13
(g14
g15
NtRp1964
(dp1965
g18
I1
sg19
I0
sg20
I4
sg21
I0
sg22
I0
sg23
I1
sg24
I0
sbssg153
S'\x8d\xad\xcf\x8a\xb2Y\xff\xc8ST\xc3\x7f\x96)N\xbb'
p1966
ssS'_usr_local_lib_python2_7_dist-packages_django_db_migrations_operations_base'
p1967
(dp1968
g6
(dp1969
g8
S'_usr_local_lib_python2_7_dist-packages_django_db_migrations_operations_base.html'
p1970
sg10
S'/usr/local/lib/python2.7/dist-packages/django/db/migrations/operations/base'
p1971
sg12
g13
(g14
g15
NtRp1972
(dp1973
g18
I1
sg19
I0
sg20
I33
sg21
I0
sg22
I0
sg23
I10
sg24
I0
sbssg25
S'\xf5\\\xbf\xe7c\xa5\xf3-\xf8\x1e\x93\xf9\xed\xbe\xb1.'
p1974
ssS'_usr_local_lib_python2_7_dist-packages_django_db_models_sql_datastructures'
p1975
(dp1976
g6
(dp1977
g8
S'_usr_local_lib_python2_7_dist-packages_django_db_models_sql_datastructures.html'
p1978
sg10
S'/usr/local/lib/python2.7/dist-packages/django/db/models/sql/datastructures'
p1979
sg12
g13
(g14
g15
NtRp1980
(dp1981
g18
I1
sg19
I0
sg20
I48
sg21
I0
sg22
I0
sg23
I21
sg24
I0
sbssg25
S"K\x1fq\x8al\xafs\x9a\xf3|\xc9\xd2\x88'WZ"
p1982
ssS'_usr_local_lib_python2_7_dist-packages_django_db_backends_sqlite3___init__'
p1983
(dp1984
g6
(dp1985
g8
S'_usr_local_lib_python2_7_dist-packages_django_db_backends_sqlite3___init__.html'
p1986
sg10
S'/usr/local/lib/python2.7/dist-packages/django/db/backends/sqlite3/__init__'
p1987
sg12
g13
(g14
g15
NtRp1988
(dp1989
g18
I1
sg19
I0
sg20
I0
sg21
I0
sg22
I0
sg23
I0
sg24
I0
sbssg25
S'\xca\xf5\x9f\x7f\x88\xdfa\x831|T\x1d\xbc}\xa5v'
p1990
ssS'_usr_local_lib_python2_7_dist-packages_django_contrib_admin_options'
p1991
(dp1992
g6
(dp1993
g8
S'_usr_local_lib_python2_7_dist-packages_django_contrib_admin_options.html'
p1994
sg10
S'/usr/local/lib/python2.7/dist-packages/django/contrib/admin/options'
p1995
sg12
g13
(g14
g15
NtRp1996
(dp1997
g18
I1
sg19
I0
sg20
I959
sg21
I0
sg22
I0
sg23
I733
sg24
I0
sbssg25
S'\xf4\x9a\x93:\x9clJ\x86i\xe6\xf0\x18\x02\x19\xcdq'
p1998
ssS'_usr_local_lib_python2_7_dist-packages_django_db_models_constants'
p1999
(dp2000
g6
(dp2001
g8
S'_usr_local_lib_python2_7_dist-packages_django_db_models_constants.html'
p2002
sg10
S'/usr/local/lib/python2.7/dist-packages/django/db/models/constants'
p2003
sg12
g13
(g14
g15
NtRp2004
(dp2005
g18
I1
sg19
I0
sg20
I1
sg21
I0
sg22
I0
sg23
I0
sg24
I0
sbssg25
S'K\x0f@\x85\xa8\x06~v\xd55D;1,\x0f\x95'
p2006
ssS'_usr_local_lib_python2_7_dist-packages_django_contrib_sessions_middleware'
p2007
(dp2008
g6
(dp2009
g70
S'_usr_local_lib_python2_7_dist-packages_django_contrib_sessions_middleware.html'
p2010
sg72
S'/usr/local/lib/python2.7/dist-packages/django/contrib/sessions/middleware'
p2011
sg74
g13
(g14
g15
NtRp2012
(dp2013
g18
I1
sg19
I0
sg20
I31
sg21
I0
sg22
I0
sg23
I4
sg24
I0
sbssg25
S'\xec\xa4y+\xe2G\xb8\x93\xa5\xb1cP\xc4\xb4}\x05'
p2014
ssS'_usr_local_lib_python2_7_dist-packages_django_db_models_expressions'
p2015
(dp2016
g6
(dp2017
g8
S'_usr_local_lib_python2_7_dist-packages_django_db_models_expressions.html'
p2018
sg10
S'/usr/local/lib/python2.7/dist-packages/django/db/models/expressions'
p2019
sg12
g13
(g14
g15
NtRp2020
(dp2021
g18
I1
sg19
I0
sg20
I99
sg21
I0
sg22
I0
sg23
I52
sg24
I0
sbssg25
S'B\xa9\xd04\x85D\xec\xa7s\xfeZ\x85\x82F\x9fO'
p2022
ssS'_usr_local_lib_python2_7_dist-packages_django_contrib_auth_apps'
p2023
(dp2024
g6
(dp2025
g8
S'_usr_local_lib_python2_7_dist-packages_django_contrib_auth_apps.html'
p2026
sg10
S'/usr/local/lib/python2.7/dist-packages/django/contrib/auth/apps'
p2027
sg12
g13
(g14
g15
NtRp2028
(dp2029
g18
I1
sg19
I0
sg20
I9
sg21
I0
sg22
I0
sg23
I0
sg24
I0
sbssg25
S'\x15\xf84\x94\xb2v\xc6!\x06\x96a\xf4\x86$\xd8N'
p2030
ssS'_usr_local_lib_python2_7_dist-packages_django_contrib_admin_utils'
p2031
(dp2032
g6
(dp2033
g8
S'_usr_local_lib_python2_7_dist-packages_django_contrib_admin_utils.html'
p2034
sg10
S'/usr/local/lib/python2.7/dist-packages/django/contrib/admin/utils'
p2035
sg12
g13
(g14
g15
NtRp2036
(dp2037
g18
I1
sg19
I0
sg20
I290
sg21
I0
sg22
I0
sg23
I233
sg24
I0
sbssg25
S'\xe1\t\xab\x187\x91\xc0N\xb1U\xf5>\x1c\r\xe2\x1a'
p2038
ssS'_usr_local_lib_python2_7_dist-packages_django_contrib_admin_filters'
p2039
(dp2040
g6
(dp2041
g8
S'_usr_local_lib_python2_7_dist-packages_django_contrib_admin_filters.html'
p2042
sg10
S'/usr/local/lib/python2.7/dist-packages/django/contrib/admin/filters'
p2043
sg12
g13
(g14
g15
NtRp2044
(dp2045
g18
I1
sg19
I0
sg20
I188
sg21
I0
sg22
I0
sg23
I127
sg24
I0
sbssg25
S'\x17\x97\x84j\xefaf\xd4#\xca\xce\xde\xc2\x13\xd6C'
p2046
ssS'_usr_local_lib_python2_7_dist-packages_django_conf_locale___init__'
p2047
(dp2048
g6
(dp2049
g8
S'_usr_local_lib_python2_7_dist-packages_django_conf_locale___init__.html'
p2050
sg10
S'/usr/local/lib/python2.7/dist-packages/django/conf/locale/__init__'
p2051
sg12
g13
(g14
g15
NtRp2052
(dp2053
g18
I1
sg19
I0
sg20
I2
sg21
I0
sg22
I0
sg23
I0
sg24
I0
sbssg25
S'\x8b\xb7\xa9\xd2\xde\xc47F;=\x9aY7=fI'
p2054
ssS'_usr_local_lib_python2_7_dist-packages_django_db_models_fields_subclassing'
p2055
(dp2056
g6
(dp2057
g8
S'_usr_local_lib_python2_7_dist-packages_django_db_models_fields_subclassing.html'
p2058
sg10
S'/usr/local/lib/python2.7/dist-packages/django/db/models/fields/subclassing'
p2059
sg12
g13
(g14
g15
NtRp2060
(dp2061
g18
I1
sg19
I0
sg20
I21
sg21
I0
sg22
I0
sg23
I14
sg24
I0
sbssg25
S"'\xde\xec\xb2\xaf\xf0\xfd\x9c.|\xf2\xe2\x8aR\x14\x94"
p2062
ssS'app1_migrations_0014_auto_20141104_2323'
p2063
(dp2064
g6
(dp2065
g8
S'app1_migrations_0014_auto_20141104_2323.html'
p2066
sg10
S'app1/migrations/0014_auto_20141104_2323'
p2067
sg12
g13
(g14
g15
NtRp2068
(dp2069
g18
I1
sg19
I0
sg20
I5
sg21
I0
sg22
I0
sg23
I0
sg24
I0
sbssg25
S'\x87\x7f\xe6\xb9\x9b\x16\xdf\xfc\x92\x90\xdf\xb8\xa8\x9a \xb0'
p2070
ssS'_usr_local_lib_python2_7_dist-packages_django_db_models_sql_where'
p2071
(dp2072
g6
(dp2073
g8
S'_usr_local_lib_python2_7_dist-packages_django_db_models_sql_where.html'
p2074
sg10
S'/usr/local/lib/python2.7/dist-packages/django/db/models/sql/where'
p2075
sg12
g13
(g14
g15
NtRp2076
(dp2077
g18
I1
sg19
I0
sg20
I236
sg21
I0
sg22
I0
sg23
I156
sg24
I0
sbssg25
S'\xd8\xae\xd2`-\xcfi\t\xa6nWp\xc1Z\x0cP'
p2078
ssS'_usr_local_lib_python2_7_dist-packages_django_template_loaders_cached'
p2079
(dp2080
g6
(dp2081
g8
S'_usr_local_lib_python2_7_dist-packages_django_template_loaders_cached.html'
p2082
sg10
S'/usr/local/lib/python2.7/dist-packages/django/template/loaders/cached'
p2083
sg12
g13
(g14
g15
NtRp2084
(dp2085
g18
I1
sg19
I0
sg20
I57
sg21
I0
sg22
I0
sg23
I45
sg24
I0
sbssg25
S'\xb6\xeb\xd6G\xbc\xd5\xc2\x19\x9f\xca\xaa\xd9M\x12\xc5\x1e'
p2086
ssS'_usr_local_lib_python2_7_dist-packages_django_db_models_fields_proxy'
p2087
(dp2088
g6
(dp2089
g8
S'_usr_local_lib_python2_7_dist-packages_django_db_models_fields_proxy.html'
p2090
sg10
S'/usr/local/lib/python2.7/dist-packages/django/db/models/fields/proxy'
p2091
sg12
g13
(g14
g15
NtRp2092
(dp2093
g18
I1
sg19
I0
sg20
I10
sg21
I0
sg22
I0
sg23
I6
sg24
I0
sbssg25
S'A\xd5\xd6O(Iu\xb8P\xd7\xdbG]z\xe2x'
p2094
ssS'app1_migrations_0010_auto_20141104_0252'
p2095
(dp2096
g6
(dp2097
g8
S'app1_migrations_0010_auto_20141104_0252.html'
p2098
sg10
S'app1/migrations/0010_auto_20141104_0252'
p2099
sg12
g13
(g14
g15
NtRp2100
(dp2101
g18
I1
sg19
I0
sg20
I5
sg21
I0
sg22
I0
sg23
I0
sg24
I0
sbssg25
S'\xaa\x12Q\xf9\x8e\x88\xc0\xb1p^\x84*[\x04I\x13'
p2102
ssS'_usr_local_lib_python2_7_dist-packages_subunit_details'
p2103
(dp2104
g147
(dp2105
g105
S'_usr_local_lib_python2_7_dist-packages_subunit_details.html'
p2106
sg107
S'/usr/local/lib/python2.7/dist-packages/subunit/details'
p2107
sg109
g13
(g14
g15
NtRp2108
(dp2109
g18
I1
sg19
I0
sg20
I65
sg21
I0
sg22
I0
sg23
I44
sg24
I0
sbssg153
S'\xb2\x0c\x94\xda%26&6@\x8bz\xee\x9c\x7f\xd5'
p2110
ssS'_usr_local_lib_python2_7_dist-packages_django_contrib_messages_storage_cookie'
p2111
(dp2112
g6
(dp2113
g8
S'_usr_local_lib_python2_7_dist-packages_django_contrib_messages_storage_cookie.html'
p2114
sg10
S'/usr/local/lib/python2.7/dist-packages/django/contrib/messages/storage/cookie'
p2115
sg12
g13
(g14
g15
NtRp2116
(dp2117
g18
I1
sg19
I0
sg20
I83
sg21
I0
sg22
I0
sg23
I60
sg24
I0
sbssg25
S'\xde&\xd8xX\xfds\x95\xea\xe8D\xd5\xf5z\xfb\\'
p2118
ssS'app1_migrations_0001_initial'
p2119
(dp2120
g6
(dp2121
g8
S'app1_migrations_0001_initial.html'
p2122
sg10
S'app1/migrations/0001_initial'
p2123
sg12
g13
(g14
g15
NtRp2124
(dp2125
g18
I1
sg19
I0
sg20
I6
sg21
I0
sg22
I0
sg23
I0
sg24
I0
sbssg25
S'\xf5\xbc7\xd5?\xd7\x91\xe9pC\xb2\xf9U\xdc\x18N'
p2126
ssS'_usr_local_lib_python2_7_dist-packages_django_db_backends_sqlite3_client'
p2127
(dp2128
g6
(dp2129
g8
S'_usr_local_lib_python2_7_dist-packages_django_db_backends_sqlite3_client.html'
p2130
sg10
S'/usr/local/lib/python2.7/dist-packages/django/db/backends/sqlite3/client'
p2131
sg12
g13
(g14
g15
NtRp2132
(dp2133
g18
I1
sg19
I0
sg20
I10
sg21
I0
sg22
I0
sg23
I4
sg24
I0
sbssg25
S'\x15\x1e\xa2\xcdZ\x13\xadM\x83w5Bk@\xda\x1d'
p2134
ssS'_usr_local_lib_python2_7_dist-packages_django_db_models_query'
p2135
(dp2136
g6
(dp2137
g8
S'_usr_local_lib_python2_7_dist-packages_django_db_models_query.html'
p2138
sg10
S'/usr/local/lib/python2.7/dist-packages/django/db/models/query'
p2139
sg12
g13
(g14
g15
NtRp2140
(dp2141
g18
I1
sg19
I0
sg20
I992
sg21
I0
sg22
I0
sg23
I647
sg24
I0
sbssg25
S'+\xc8&GOJ/\xf8\x12\xd4o\x95d77J'
p2142
ssS'_usr_local_lib_python2_7_dist-packages_django_contrib_auth_hashers'
p2143
(dp2144
g6
(dp2145
g8
S'_usr_local_lib_python2_7_dist-packages_django_contrib_auth_hashers.html'
p2146
sg10
S'/usr/local/lib/python2.7/dist-packages/django/contrib/auth/hashers'
p2147
sg12
g13
(g14
g15
NtRp2148
(dp2149
g18
I1
sg19
I0
sg20
I247
sg21
I0
sg22
I0
sg23
I107
sg24
I0
sbssg25
S'\x95NHv.Dd\x95g\x13\xa8s\xf1\x1d\x80/'
p2150
ssS'_usr_local_lib_python2_7_dist-packages_django_db_migrations_state'
p2151
(dp2152
g6
(dp2153
g8
S'_usr_local_lib_python2_7_dist-packages_django_db_migrations_state.html'
p2154
sg10
S'/usr/local/lib/python2.7/dist-packages/django/db/migrations/state'
p2155
sg12
g13
(g14
g15
NtRp2156
(dp2157
g18
I1
sg19
I0
sg20
I181
sg21
I0
sg22
I0
sg23
I98
sg24
I0
sbssg25
S'\xb6/\xaa\x18\xa7\xfd|\xd7WC\xf5\x8d8\xd4\x7f\x19'
p2158
ssS'_usr_local_lib_python2_7_dist-packages_django_core_checks_compatibility_django_1_6_0'
p2159
(dp2160
g6
(dp2161
g8
S'_usr_local_lib_python2_7_dist-packages_django_core_checks_compatibility_django_1_6_0.html'
p2162
sg10
S'/usr/local/lib/python2.7/dist-packages/django/core/checks/compatibility/django_1_6_0'
p2163
sg12
g13
(g14
g15
NtRp2164
(dp2165
g18
I1
sg19
I0
sg20
I36
sg21
I0
sg22
I0
sg23
I8
sg24
I0
sbssg25
S'K:\x8c3\x9e\xc2\x0cu\xc6Q\x15\xdbdO\x00\xcb'
p2166
ssS'app1_migrations_0004_auto_20141028_1539'
p2167
(dp2168
g6
(dp2169
g8
S'app1_migrations_0004_auto_20141028_1539.html'
p2170
sg10
S'app1/migrations/0004_auto_20141028_1539'
p2171
sg12
g13
(g14
g15
NtRp2172
(dp2173
g18
I1
sg19
I0
sg20
I5
sg21
I0
sg22
I0
sg23
I0
sg24
I0
sbssg25
S'\x86\xda\xecN5p\x93\x98J&A\xf6\xeerp3'
p2174
ssS'_usr_local_lib_python2_7_dist-packages_django_core_management___init__'
p2175
(dp2176
g6
(dp2177
g8
S'_usr_local_lib_python2_7_dist-packages_django_core_management___init__.html'
p2178
sg10
S'/usr/local/lib/python2.7/dist-packages/django/core/management/__init__'
p2179
sg12
g13
(g14
g15
NtRp2180
(dp2181
g18
I1
sg19
I0
sg20
I173
sg21
I0
sg22
I0
sg23
I80
sg24
I0
sbssg25
S'^\xaa\x03\x969\xfc\xa6\xfd\x98\xab\xb6\x082\xf4N\x1a'
p2182
ssS'_usr_local_lib_python2_7_dist-packages_django_contrib_sessions_exceptions'
p2183
(dp2184
g6
(dp2185
g8
S'_usr_local_lib_python2_7_dist-packages_django_contrib_sessions_exceptions.html'
p2186
sg10
S'/usr/local/lib/python2.7/dist-packages/django/contrib/sessions/exceptions'
p2187
sg12
g13
(g14
g15
NtRp2188
(dp2189
g18
I1
sg19
I0
sg20
I5
sg21
I0
sg22
I0
sg23
I0
sg24
I0
sbssg25
S'\x95\x04\x01\x10c\xc83\xdaB\xb8qa\xe6[c\xd8'
p2190
ssS'_usr_local_lib_python2_7_dist-packages_django_views_decorators___init__'
p2191
(dp2192
g6
(dp2193
g8
S'_usr_local_lib_python2_7_dist-packages_django_views_decorators___init__.html'
p2194
sg10
S'/usr/local/lib/python2.7/dist-packages/django/views/decorators/__init__'
p2195
sg12
g13
(g14
g15
NtRp2196
(dp2197
g18
I1
sg19
I0
sg20
I0
sg21
I0
sg22
I0
sg23
I0
sg24
I0
sbssg25
S'\xca\xf5\x9f\x7f\x88\xdfa\x831|T\x1d\xbc}\xa5v'
p2198
ssS'_usr_local_lib_python2_7_dist-packages_testtools_matchers___init__'
p2199
(dp2200
g147
(dp2201
g105
S'_usr_local_lib_python2_7_dist-packages_testtools_matchers___init__.html'
p2202
sg107
S'/usr/local/lib/python2.7/dist-packages/testtools/matchers/__init__'
p2203
sg109
g13
(g14
g15
NtRp2204
(dp2205
g18
I1
sg19
I0
sg20
I10
sg21
I0
sg22
I0
sg23
I0
sg24
I0
sbssg153
S'\x00\x10\x17\x07+\x8bF\xb6\xa4\xb1s\xd1\xe6\xa1?\xf6'
p2206
ssS'_usr_local_lib_python2_7_dist-packages_django_db_migrations_loader'
p2207
(dp2208
g6
(dp2209
g8
S'_usr_local_lib_python2_7_dist-packages_django_db_migrations_loader.html'
p2210
sg10
S'/usr/local/lib/python2.7/dist-packages/django/db/migrations/loader'
p2211
sg12
g13
(g14
g15
NtRp2212
(dp2213
g18
I1
sg19
I0
sg20
I165
sg21
I0
sg22
I0
sg23
I59
sg24
I0
sbssg25
S'\xfe\xec\x9f\xdfG3\xea\xe3\x8c\x1b\xce|\x1f\xbd\x1f\x05'
p2214
ssS'_usr_local_lib_python2_7_dist-packages_django_core_cache_backends_db'
p2215
(dp2216
g6
(dp2217
g8
S'_usr_local_lib_python2_7_dist-packages_django_core_cache_backends_db.html'
p2218
sg10
S'/usr/local/lib/python2.7/dist-packages/django/core/cache/backends/db'
p2219
sg12
g13
(g14
g15
NtRp2220
(dp2221
g18
I1
sg19
I0
sg20
I134
sg21
I0
sg22
I0
sg23
I109
sg24
I0
sbssg25
S'\xe8\xc5\x11e\x92\x11\xc1&\xa7\xbaj=\x9c\x10\xf8\xc9'
p2222
ssS'_usr_local_lib_python2_7_dist-packages_django_core_signals'
p2223
(dp2224
g6
(dp2225
g8
S'_usr_local_lib_python2_7_dist-packages_django_core_signals.html'
p2226
sg10
S'/usr/local/lib/python2.7/dist-packages/django/core/signals'
p2227
sg12
g13
(g14
g15
NtRp2228
(dp2229
g18
I1
sg19
I0
sg20
I4
sg21
I0
sg22
I0
sg23
I0
sg24
I0
sbssg25
S'\x11)\xaf\xa7<%!O_\xa5\xae\x81Dl\xa7C'
p2230
ssS'_usr_local_lib_python2_7_dist-packages_django_views___init__'
p2231
(dp2232
g6
(dp2233
g8
S'_usr_local_lib_python2_7_dist-packages_django_views___init__.html'
p2234
sg10
S'/usr/local/lib/python2.7/dist-packages/django/views/__init__'
p2235
sg12
g13
(g14
g15
NtRp2236
(dp2237
g18
I1
sg19
I0
sg20
I0
sg21
I0
sg22
I0
sg23
I0
sg24
I0
sbssg25
S'\xca\xf5\x9f\x7f\x88\xdfa\x831|T\x1d\xbc}\xa5v'
p2238
ssS'_usr_local_lib_python2_7_dist-packages_django_contrib_messages_apps'
p2239
(dp2240
g6
(dp2241
g8
S'_usr_local_lib_python2_7_dist-packages_django_contrib_messages_apps.html'
p2242
sg10
S'/usr/local/lib/python2.7/dist-packages/django/contrib/messages/apps'
p2243
sg12
g13
(g14
g15
NtRp2244
(dp2245
g18
I1
sg19
I0
sg20
I5
sg21
I0
sg22
I0
sg23
I0
sg24
I0
sbssg25
S')m\xd9\x94\xbc0\xa5i~\xfc\x8eK\xe1{0\x94'
p2246
ssS'_usr_local_lib_python2_7_dist-packages_django_utils_datastructures'
p2247
(dp2248
g6
(dp2249
g70
S'_usr_local_lib_python2_7_dist-packages_django_utils_datastructures.html'
p2250
sg72
S'/usr/local/lib/python2.7/dist-packages/django/utils/datastructures'
p2251
sg74
g13
(g14
g15
NtRp2252
(dp2253
g18
I1
sg19
I0
sg20
I317
sg21
I0
sg22
I0
sg23
I161
sg24
I0
sbssg25
S'3\xd0\xae\xf5Q\x86\x84\x86\xb4\x97\x89\xa7\x9b4\xe1z'
p2254
ssS'_usr_local_lib_python2_7_dist-packages_django_contrib_sessions_backends_base'
p2255
(dp2256
g6
(dp2257
g70
S'_usr_local_lib_python2_7_dist-packages_django_contrib_sessions_backends_base.html'
p2258
sg72
S'/usr/local/lib/python2.7/dist-packages/django/contrib/sessions/backends/base'
p2259
sg74
g13
(g14
g15
NtRp2260
(dp2261
g18
I1
sg19
I0
sg20
I181
sg21
I0
sg22
I0
sg23
I48
sg24
I0
sbssg25
S'\xacY\x9d\xef\xb8M\xa5\x93\x14\x9f\xc8\xe5\n\xb3o\xca'
p2262
ssS'_usr_local_lib_python2_7_dist-packages_django_core_checks_compatibility___init__'
p2263
(dp2264
g6
(dp2265
g8
S'_usr_local_lib_python2_7_dist-packages_django_core_checks_compatibility___init__.html'
p2266
sg10
S'/usr/local/lib/python2.7/dist-packages/django/core/checks/compatibility/__init__'
p2267
sg12
g13
(g14
g15
NtRp2268
(dp2269
g18
I1
sg19
I0
sg20
I0
sg21
I0
sg22
I0
sg23
I0
sg24
I0
sbssg25
S'\xca\xf5\x9f\x7f\x88\xdfa\x831|T\x1d\xbc}\xa5v'
p2270
ssS'_usr_local_lib_python2_7_dist-packages_django_core_serializers_pyyaml'
p2271
(dp2272
g6
(dp2273
g8
S'_usr_local_lib_python2_7_dist-packages_django_core_serializers_pyyaml.html'
p2274
sg10
S'/usr/local/lib/python2.7/dist-packages/django/core/serializers/pyyaml'
p2275
sg12
g13
(g14
g15
NtRp2276
(dp2277
g18
I1
sg19
I0
sg20
I41
sg21
I0
sg22
I0
sg23
I39
sg24
I0
sbssg25
S'\x1d\xf9X\x9c<\n\xa9Q\x18\xd4\xe2\xdfDF\x8e\xdf'
p2278
ssS'_usr_local_lib_python2_7_dist-packages_django_db_migrations_optimizer'
p2279
(dp2280
g6
(dp2281
g8
S'_usr_local_lib_python2_7_dist-packages_django_db_migrations_optimizer.html'
p2282
sg10
S'/usr/local/lib/python2.7/dist-packages/django/db/migrations/optimizer'
p2283
sg12
g13
(g14
g15
NtRp2284
(dp2285
g18
I1
sg19
I0
sg20
I98
sg21
I0
sg22
I0
sg23
I75
sg24
I0
sbssg25
S'\x0c\xcdU\x02\x9f\xf6\xc3\xaa[6@g\xc8\xaa\xc4F'
p2286
ssS'_usr_local_lib_python2_7_dist-packages_django_conf_urls_static'
p2287
(dp2288
g6
(dp2289
g8
S'_usr_local_lib_python2_7_dist-packages_django_conf_urls_static.html'
p2290
sg10
S'/usr/local/lib/python2.7/dist-packages/django/conf/urls/static'
p2291
sg12
g13
(g14
g15
NtRp2292
(dp2293
g18
I1
sg19
I0
sg20
I10
sg21
I0
sg22
I0
sg23
I3
sg24
I0
sbssg25
S'\xecP+VG9\x82\xc6\x89\xef\xc6\x8f\x04\xc3ld'
p2294
ssS'_usr_local_lib_python2_7_dist-packages_django_http_response'
p2295
(dp2296
g6
(dp2297
g70
S'_usr_local_lib_python2_7_dist-packages_django_http_response.html'
p2298
sg72
S'/usr/local/lib/python2.7/dist-packages/django/http/response'
p2299
sg74
g13
(g14
g15
NtRp2300
(dp2301
g18
I1
sg19
I0
sg20
I225
sg21
I0
sg22
I0
sg23
I75
sg24
I0
sbssg25
S'\xa1\xd5%\xc8\xe5\x83m\xc7\xe7q\x81\x88\xbe\x00\x8b\xc1'
p2302
ssS'_usr_local_lib_python2_7_dist-packages_django_db_models___init__'
p2303
(dp2304
g6
(dp2305
g8
S'_usr_local_lib_python2_7_dist-packages_django_db_models___init__.html'
p2306
sg10
S'/usr/local/lib/python2.7/dist-packages/django/db/models/__init__'
p2307
sg12
g13
(g14
g15
NtRp2308
(dp2309
g18
I1
sg19
I0
sg20
I35
sg21
I0
sg22
I0
sg23
I8
sg24
I0
sbssg25
S'\xea}(\x15$\x94\xbc\xb6\xa3tk (\xbbm\x9e'
p2310
ssS'_usr_local_lib_python2_7_dist-packages_django_contrib_auth_management___init__'
p2311
(dp2312
g6
(dp2313
g8
S'_usr_local_lib_python2_7_dist-packages_django_contrib_auth_management___init__.html'
p2314
sg10
S'/usr/local/lib/python2.7/dist-packages/django/contrib/auth/management/__init__'
p2315
sg12
g13
(g14
g15
NtRp2316
(dp2317
g18
I1
sg19
I0
sg20
I89
sg21
I0
sg22
I0
sg23
I40
sg24
I0
sbssg25
S'\x13\xf9w\x07\x96&\xa7\x9em\xdbZG}\xceZk'
p2318
ssS'_usr_local_lib_python2_7_dist-packages_lettuce_decorators'
p2319
(dp2320
g147
(dp2321
g105
S'_usr_local_lib_python2_7_dist-packages_lettuce_decorators.html'
p2322
sg107
S'/usr/local/lib/python2.7/dist-packages/lettuce/decorators'
p2323
sg109
g13
(g14
g15
NtRp2324
(dp2325
g18
I1
sg19
I0
sg20
I17
sg21
I0
sg22
I0
sg23
I13
sg24
I0
sbssg153
S'\x81\xca(\xe3\xc3\xd4\xfc\xc6\x93\xd4\x89}\x05u.\x95'
p2326
ssS'_usr_local_lib_python2_7_dist-packages_django_db___init__'
p2327
(dp2328
g6
(dp2329
g8
S'_usr_local_lib_python2_7_dist-packages_django_db___init__.html'
p2330
sg10
S'/usr/local/lib/python2.7/dist-packages/django/db/__init__'
p2331
sg12
g13
(g14
g15
NtRp2332
(dp2333
g18
I1
sg19
I0
sg20
I50
sg21
I0
sg22
I0
sg23
I20
sg24
I0
sbssg25
S'\xdcxq\xfaN\xb1\xd3\xffaa\xddu\x19\xc0\xa2\x9d'
p2334
ssS'_usr_local_lib_python2_7_dist-packages_lettuce___init__'
p2335
(dp2336
g147
(dp2337
g105
S'_usr_local_lib_python2_7_dist-packages_lettuce___init__.html'
p2338
sg107
S'/usr/local/lib/python2.7/dist-packages/lettuce/__init__'
p2339
sg109
g13
(g14
g15
NtRp2340
(dp2341
g18
I1
sg19
I0
sg20
I108
sg21
I0
sg22
I0
sg23
I77
sg24
I0
sbssg153
S'n\xd6N\xfb\x01\xa7\xd0\xda\x0c\xe9,\x12\x8e\x12\xb9\xe7'
p2342
ssS'_usr_local_lib_python2_7_dist-packages_django_contrib_admin_apps'
p2343
(dp2344
g6
(dp2345
g8
S'_usr_local_lib_python2_7_dist-packages_django_contrib_admin_apps.html'
p2346
sg10
S'/usr/local/lib/python2.7/dist-packages/django/contrib/admin/apps'
p2347
sg12
g13
(g14
g15
NtRp2348
(dp2349
g18
I1
sg19
I0
sg20
I13
sg21
I0
sg22
I0
sg23
I0
sg24
I0
sbssg25
S'\x07\x9e\x9c\x1an1\xd6jl\x9cwTz\x19/\xf2'
p2350
ssS'_usr_local_lib_python2_7_dist-packages_django_contrib_messages_middleware'
p2351
(dp2352
g6
(dp2353
g8
S'_usr_local_lib_python2_7_dist-packages_django_contrib_messages_middleware.html'
p2354
sg10
S'/usr/local/lib/python2.7/dist-packages/django/contrib/messages/middleware'
p2355
sg12
g13
(g14
g15
NtRp2356
(dp2357
g18
I1
sg19
I0
sg20
I11
sg21
I0
sg22
I0
sg23
I1
sg24
I0
sbssg25
S'\xb3^Gb\x9c\x16p\xcf\xc1\x94J\x89,\xf2\x06\xfc'
p2358
ssS'_usr_local_lib_python2_7_dist-packages_django_db_backends_creation'
p2359
(dp2360
g6
(dp2361
g8
S'_usr_local_lib_python2_7_dist-packages_django_db_backends_creation.html'
p2362
sg10
S'/usr/local/lib/python2.7/dist-packages/django/db/backends/creation'
p2363
sg12
g13
(g14
g15
NtRp2364
(dp2365
g18
I1
sg19
I0
sg20
I287
sg21
I0
sg22
I0
sg23
I198
sg24
I0
sbssg25
S'\xab\xaa\xa4\xa0 tW\xb4\x8d\x1e4$\x95\x00jc'
p2366
ssS'_usr_local_lib_python2_7_dist-packages_django_contrib_auth_admin'
p2367
(dp2368
g6
(dp2369
g8
S'_usr_local_lib_python2_7_dist-packages_django_contrib_auth_admin.html'
p2370
sg10
S'/usr/local/lib/python2.7/dist-packages/django/contrib/auth/admin'
p2371
sg12
g13
(g14
g15
NtRp2372
(dp2373
g18
I1
sg19
I0
sg20
I99
sg21
I0
sg22
I0
sg23
I47
sg24
I0
sbssg25
S'\xa4\xcb\xe1*Sx\xeb\x97<\xe6r?\r\xc4Mp'
p2374
ssS'app1_models'
p2375
(dp2376
g6
(dp2377
g8
S'app1_models.html'
p2378
sg10
S'app1/models'
p2379
sg12
g13
(g14
g15
NtRp2380
(dp2381
g18
I1
sg19
I0
sg20
I27
sg21
I0
sg22
I0
sg23
I2
sg24
I0
sbssg25
S'@p\x9ccf\xf7\x11\x9c"\xf2\xaa\xbb\xc6\x10\x17\n'
p2382
ssS'_usr_local_lib_python2_7_dist-packages_django_contrib_admin_widgets'
p2383
(dp2384
g6
(dp2385
g8
S'_usr_local_lib_python2_7_dist-packages_django_contrib_admin_widgets.html'
p2386
sg10
S'/usr/local/lib/python2.7/dist-packages/django/contrib/admin/widgets'
p2387
sg12
g13
(g14
g15
NtRp2388
(dp2389
g18
I1
sg19
I0
sg20
I224
sg21
I0
sg22
I0
sg23
I154
sg24
I0
sbssg25
S"[\xef\xb6\x03\xd8<\xdbB'~{\xf0\xe7v]y"
p2390
ssS'_usr_local_lib_python2_7_dist-packages_django_db_backends_signals'
p2391
(dp2392
g6
(dp2393
g8
S'_usr_local_lib_python2_7_dist-packages_django_db_backends_signals.html'
p2394
sg10
S'/usr/local/lib/python2.7/dist-packages/django/db/backends/signals'
p2395
sg12
g13
(g14
g15
NtRp2396
(dp2397
g18
I1
sg19
I0
sg20
I2
sg21
I0
sg22
I0
sg23
I0
sg24
I0
sbssg25
S'\xd0\x7fA\xfb\xdfoE\xbc.\x17\x18\xd7\xa5\xbf\x04\xe4'
p2398
ssS'_usr_local_lib_python2_7_dist-packages_lettuce_exceptions'
p2399
(dp2400
g147
(dp2401
g105
S'_usr_local_lib_python2_7_dist-packages_lettuce_exceptions.html'
p2402
sg107
S'/usr/local/lib/python2.7/dist-packages/lettuce/exceptions'
p2403
sg109
g13
(g14
g15
NtRp2404
(dp2405
g18
I1
sg19
I0
sg20
I23
sg21
I0
sg22
I0
sg23
I12
sg24
I0
sbssg153
S'\x0e\x02\xb4\xcb\x0eTu\x9f\xf2\xe9\x1dq\xa3>\x7fV'
p2406
ssS'_usr_local_lib_python2_7_dist-packages_django_core_files_uploadedfile'
p2407
(dp2408
g6
(dp2409
g8
S'_usr_local_lib_python2_7_dist-packages_django_core_files_uploadedfile.html'
p2410
sg10
S'/usr/local/lib/python2.7/dist-packages/django/core/files/uploadedfile'
p2411
sg12
g13
(g14
g15
NtRp2412
(dp2413
g18
I1
sg19
I0
sg20
I60
sg21
I0
sg22
I0
sg23
I33
sg24
I0
sbssg25
S'\x85\xba\x80\xf11\xf0\xb9\xbf\x00\xf27D2\xbbX\x9e'
p2414
ssS'_usr_local_lib_python2_7_dist-packages_django_utils_itercompat'
p2415
(dp2416
g6
(dp2417
g8
S'_usr_local_lib_python2_7_dist-packages_django_utils_itercompat.html'
p2418
sg10
S'/usr/local/lib/python2.7/dist-packages/django/utils/itercompat'
p2419
sg12
g13
(g14
g15
NtRp2420
(dp2421
g18
I1
sg19
I0
sg20
I6
sg21
I0
sg22
I0
sg23
I2
sg24
I0
sbssg25
S'3\xdb\xd1\x8c\x87z\xc1\tg?Z\xd6\x137+P'
p2422
ssS'_usr_local_lib_python2_7_dist-packages_testtools_tags'
p2423
(dp2424
g147
(dp2425
g105
S'_usr_local_lib_python2_7_dist-packages_testtools_tags.html'
p2426
sg107
S'/usr/local/lib/python2.7/dist-packages/testtools/tags'
p2427
sg109
g13
(g14
g15
NtRp2428
(dp2429
g18
I1
sg19
I0
sg20
I13
sg21
I0
sg22
I0
sg23
I8
sg24
I0
sbssg153
S'\t\xba\x1e\xb70\xcd\xea\xc9?\xdf\xae\x9a\xed\x8f\xee\xc3'
p2430
ssS'_usr_local_lib_python2_7_dist-packages_django_db_models_lookups'
p2431
(dp2432
g6
(dp2433
g8
S'_usr_local_lib_python2_7_dist-packages_django_db_models_lookups.html'
p2434
sg10
S'/usr/local/lib/python2.7/dist-packages/django/db/models/lookups'
p2435
sg12
g13
(g14
g15
NtRp2436
(dp2437
g18
I1
sg19
I0
sg20
I254
sg21
I0
sg22
I0
sg23
I87
sg24
I0
sbssg25
S'Y\xef\xe9\xe9\xc2zc\xdc \xab\x1cF\xee\xf9\xb2\x96'
p2438
ssS'_usr_local_lib_python2_7_dist-packages_fuzzywuzzy_fuzz'
p2439
(dp2440
g147
(dp2441
g105
S'_usr_local_lib_python2_7_dist-packages_fuzzywuzzy_fuzz.html'
p2442
sg107
S'/usr/local/lib/python2.7/dist-packages/fuzzywuzzy/fuzz'
p2443
sg109
g13
(g14
g15
NtRp2444
(dp2445
g18
I1
sg19
I0
sg20
I132
sg21
I0
sg22
I0
sg23
I111
sg24
I0
sbssg153
S"\x19'\x1av\r\x8d\xba\xd4\x18\x14\x01\xb7\xe6\x80\x1dl"
p2446
ssS'_usr_local_lib_python2_7_dist-packages_testtools_matchers__dict'
p2447
(dp2448
g147
(dp2449
g105
S'_usr_local_lib_python2_7_dist-packages_testtools_matchers__dict.html'
p2450
sg107
S'/usr/local/lib/python2.7/dist-packages/testtools/matchers/_dict'
p2451
sg109
g13
(g14
g15
NtRp2452
(dp2453
g18
I1
sg19
I0
sg20
I102
sg21
I0
sg22
I0
sg23
I59
sg24
I0
sbssg153
S'>\xb2\x95\x90>o/+2z]\xedk\xbc\x8e5'
p2454
ssS'_usr_local_lib_python2_7_dist-packages_django_core_management_commands_flush'
p2455
(dp2456
g6
(dp2457
g8
S'_usr_local_lib_python2_7_dist-packages_django_core_management_commands_flush.html'
p2458
sg10
S'/usr/local/lib/python2.7/dist-packages/django/core/management/commands/flush'
p2459
sg12
g13
(g14
g15
NtRp2460
(dp2461
g18
I1
sg19
I0
sg20
I52
sg21
I0
sg22
I0
sg23
I11
sg24
I0
sbssg25
S'\x10C\x89C\xf7J\x95B\xcb\xb2\x8a+\x12\xd4\xb0\xb7'
p2462
ssS'_usr_local_lib_python2_7_dist-packages_django_db_backends___init__'
p2463
(dp2464
g6
(dp2465
g8
S'_usr_local_lib_python2_7_dist-packages_django_db_backends___init__.html'
p2466
sg10
S'/usr/local/lib/python2.7/dist-packages/django/db/backends/__init__'
p2467
sg12
g13
(g14
g15
NtRp2468
(dp2469
g18
I1
sg19
I0
sg20
I609
sg21
I0
sg22
I0
sg23
I242
sg24
I0
sbssg25
S'\x04\xae\xee\x93\xadP\xfb~:\xe8\xc7\xba\x19\xf0#b'
p2470
ssS'_usr_local_lib_python2_7_dist-packages_django_middleware_cache'
p2471
(dp2472
g6
(dp2473
g8
S'_usr_local_lib_python2_7_dist-packages_django_middleware_cache.html'
p2474
sg10
S'/usr/local/lib/python2.7/dist-packages/django/middleware/cache'
p2475
sg12
g13
(g14
g15
NtRp2476
(dp2477
g18
I1
sg19
I0
sg20
I92
sg21
I0
sg22
I0
sg23
I77
sg24
I0
sbssg25
S'G,\xa7Kn\x1ff\x91\xe2y\x8c\xbbey\xa5~'
p2478
ssS'_usr_local_lib_python2_7_dist-packages_django_contrib_messages_constants'
p2479
(dp2480
g6
(dp2481
g8
S'_usr_local_lib_python2_7_dist-packages_django_contrib_messages_constants.html'
p2482
sg10
S'/usr/local/lib/python2.7/dist-packages/django/contrib/messages/constants'
p2483
sg12
g13
(g14
g15
NtRp2484
(dp2485
g18
I1
sg19
I0
sg20
I7
sg21
I0
sg22
I0
sg23
I0
sg24
I0
sbssg25
S'\xc7\x16o\xf2\xe8\xb4L\xe1\xe4[\xa2r\x0bS;\xed'
p2486
ssS'_usr_local_lib_python2_7_dist-packages_django_utils_formats'
p2487
(dp2488
g6
(dp2489
g8
S'_usr_local_lib_python2_7_dist-packages_django_utils_formats.html'
p2490
sg10
S'/usr/local/lib/python2.7/dist-packages/django/utils/formats'
p2491
sg12
g13
(g14
g15
NtRp2492
(dp2493
g18
I1
sg19
I0
sg20
I118
sg21
I0
sg22
I0
sg23
I47
sg24
I0
sbssg25
S'b\xbd\xbd\xf8I\xac\xf5\xb7\xa6\xcc\x98\xc7\x0f\xce.\xbe'
p2494
ssS'_usr_local_lib_python2_7_dist-packages_django_middleware_common'
p2495
(dp2496
g6
(dp2497
g8
S'_usr_local_lib_python2_7_dist-packages_django_middleware_common.html'
p2498
sg10
S'/usr/local/lib/python2.7/dist-packages/django/middleware/common'
p2499
sg12
g13
(g14
g15
NtRp2500
(dp2501
g18
I1
sg19
I0
sg20
I78
sg21
I0
sg22
I0
sg23
I47
sg24
I0
sbssg25
S'\rw\xad\xeb\xdb\x1b\x99\x98\xc6\xa4\x8b:\x7f;\x03\xe6'
p2502
ssS'_usr_local_lib_python2_7_dist-packages_django_core_files_storage'
p2503
(dp2504
g6
(dp2505
g8
S'_usr_local_lib_python2_7_dist-packages_django_core_files_storage.html'
p2506
sg10
S'/usr/local/lib/python2.7/dist-packages/django/core/files/storage'
p2507
sg12
g13
(g14
g15
NtRp2508
(dp2509
g18
I1
sg19
I0
sg20
I153
sg21
I0
sg22
I0
sg23
I92
sg24
I0
sbssg25
S'\x81~\x8f\xcf\xee\xc6\x9bt\xc5\\y\xcb\xc0\xdf\x9fT'
p2510
ssS'_usr_local_lib_python2_7_dist-packages_lettuce_plugins_subunit_output'
p2511
(dp2512
g147
(dp2513
g105
S'_usr_local_lib_python2_7_dist-packages_lettuce_plugins_subunit_output.html'
p2514
sg107
S'/usr/local/lib/python2.7/dist-packages/lettuce/plugins/subunit_output'
p2515
sg109
g13
(g14
g15
NtRp2516
(dp2517
g18
I1
sg19
I0
sg20
I68
sg21
I0
sg22
I0
sg23
I57
sg24
I0
sbssg153
S'\xab\xe0(4x\x81\xe2\x90\xe8\x16\xa7\x02\x15\xc7\xa3\x07'
p2518
ssS'_usr_local_lib_python2_7_dist-packages_django_utils_ipv6'
p2519
(dp2520
g6
(dp2521
g8
S'_usr_local_lib_python2_7_dist-packages_django_utils_ipv6.html'
p2522
sg10
S'/usr/local/lib/python2.7/dist-packages/django/utils/ipv6'
p2523
sg12
g13
(g14
g15
NtRp2524
(dp2525
g18
I1
sg19
I0
sg20
I108
sg21
I0
sg22
I0
sg23
I99
sg24
I0
sbssg25
S'\xd0\x14\xc1B\x89W\x94A\xbc\x91\x18*\xc66\x11\x05'
p2526
ssS'_usr_local_lib_python2_7_dist-packages_django_db_models_sql_compiler'
p2527
(dp2528
g6
(dp2529
g105
S'_usr_local_lib_python2_7_dist-packages_django_db_models_sql_compiler.html'
p2530
sg107
S'/usr/local/lib/python2.7/dist-packages/django/db/models/sql/compiler'
p2531
sg109
g13
(g14
g15
NtRp2532
(dp2533
g18
I1
sg19
I0
sg20
I703
sg21
I0
sg22
I0
sg23
I335
sg24
I0
sbssg25
S'J\xc5H\x9a\x92\xe0\xd85\xa1\xec\xc1\xda{\xf5i-'
p2534
ssS'_usr_local_lib_python2_7_dist-packages_django_db_models_sql_subqueries'
p2535
(dp2536
g6
(dp2537
g8
S'_usr_local_lib_python2_7_dist-packages_django_db_models_sql_subqueries.html'
p2538
sg10
S'/usr/local/lib/python2.7/dist-packages/django/db/models/sql/subqueries'
p2539
sg12
g13
(g14
g15
NtRp2540
(dp2541
g18
I1
sg19
I0
sg20
I143
sg21
I0
sg22
I0
sg23
I76
sg24
I0
sbssg25
S'sG\xa1\xd8\x0b\xdd\x85\xc2\n\x83\x04\r\xd0j\x9c\xae'
p2542
ssS'app1_migrations_0007_auto_20141028_1729'
p2543
(dp2544
g6
(dp2545
g8
S'app1_migrations_0007_auto_20141028_1729.html'
p2546
sg10
S'app1/migrations/0007_auto_20141028_1729'
p2547
sg12
g13
(g14
g15
NtRp2548
(dp2549
g18
I1
sg19
I0
sg20
I6
sg21
I0
sg22
I0
sg23
I0
sg24
I0
sbssg25
S'|\xea\x94$?\x9b\xa6z\x11\xc6KW\xab\xda\xbf\xb5'
p2550
ssS'app1_migrations_0006_auto_20141028_1558'
p2551
(dp2552
g6
(dp2553
g8
S'app1_migrations_0006_auto_20141028_1558.html'
p2554
sg10
S'app1/migrations/0006_auto_20141028_1558'
p2555
sg12
g13
(g14
g15
NtRp2556
(dp2557
g18
I1
sg19
I0
sg20
I5
sg21
I0
sg22
I0
sg23
I0
sg24
I0
sbssg25
S'\xadg\xd5\x8a\xf3\xacV\xd6\xbdH\\\xd8x"\xf3\x89'
p2558
ssS'app1_migrations_0008_auto_20141030_0307'
p2559
(dp2560
g6
(dp2561
g8
S'app1_migrations_0008_auto_20141030_0307.html'
p2562
sg10
S'app1/migrations/0008_auto_20141030_0307'
p2563
sg12
g13
(g14
g15
NtRp2564
(dp2565
g18
I1
sg19
I0
sg20
I5
sg21
I0
sg22
I0
sg23
I0
sg24
I0
sbssg25
S'\x81\xd2\x11\xa7u\xc4sCA,\x10C\x11\xb3^\xdb'
p2566
ssS'_usr_local_lib_python2_7_dist-packages_django_contrib_sessions___init__'
p2567
(dp2568
g6
(dp2569
g8
S'_usr_local_lib_python2_7_dist-packages_django_contrib_sessions___init__.html'
p2570
sg10
S'/usr/local/lib/python2.7/dist-packages/django/contrib/sessions/__init__'
p2571
sg12
g13
(g14
g15
NtRp2572
(dp2573
g18
I1
sg19
I0
sg20
I1
sg21
I0
sg22
I0
sg23
I0
sg24
I0
sbssg25
S'\xdcQHA\xd9\x96\x89w!\xbb\xc1o\xf5\x9e%\xf4'
p2574
ssS'_usr_local_lib_python2_7_dist-packages_django_core_mail_utils'
p2575
(dp2576
g6
(dp2577
g8
S'_usr_local_lib_python2_7_dist-packages_django_core_mail_utils.html'
p2578
sg10
S'/usr/local/lib/python2.7/dist-packages/django/core/mail/utils'
p2579
sg12
g13
(g14
g15
NtRp2580
(dp2581
g18
I1
sg19
I0
sg20
I9
sg21
I0
sg22
I0
sg23
I4
sg24
I0
sbssg25
S'1;F\xfb\xb1\rUh=1\x8b}\x9c3\xc3\xbf'
p2582
ssS'userprofile_migrations_0002_auto_20141104_0632'
p2583
(dp2584
g6
(dp2585
g8
S'userprofile_migrations_0002_auto_20141104_0632.html'
p2586
sg10
S'userprofile/migrations/0002_auto_20141104_0632'
p2587
sg12
g13
(g14
g15
NtRp2588
(dp2589
g18
I1
sg19
I0
sg20
I5
sg21
I0
sg22
I0
sg23
I0
sg24
I0
sbssg25
S'Z^q.I~\xdeb\x81\x1a\xf5\x84!\xc0d\xe1'
p2590
ssS'_usr_local_lib_python2_7_dist-packages_django_core_serializers_base'
p2591
(dp2592
g6
(dp2593
g8
S'_usr_local_lib_python2_7_dist-packages_django_core_serializers_base.html'
p2594
sg10
S'/usr/local/lib/python2.7/dist-packages/django/core/serializers/base'
p2595
sg12
g13
(g14
g15
NtRp2596
(dp2597
g18
I1
sg19
I0
sg20
I90
sg21
I0
sg22
I0
sg23
I33
sg24
I0
sbssg25
S'\x05:\xaa\x8f\xf4?\xa3P\x1d\x879H3\xf0\xc0\xe2'
p2598
ssS'_usr_local_lib_python2_7_dist-packages_django_contrib_messages___init__'
p2599
(dp2600
g6
(dp2601
g8
S'_usr_local_lib_python2_7_dist-packages_django_contrib_messages___init__.html'
p2602
sg10
S'/usr/local/lib/python2.7/dist-packages/django/contrib/messages/__init__'
p2603
sg12
g13
(g14
g15
NtRp2604
(dp2605
g18
I1
sg19
I0
sg20
I3
sg21
I0
sg22
I0
sg23
I0
sg24
I0
sbssg25
S'\xbc\xf2\x97i5\x1b\\M\x17\x84a\\p\xe3\xafw'
p2606
ssS'app1_tests'
p2607
(dp2608
g6
(dp2609
g70
S'app1_tests.html'
p2610
sg72
S'app1/tests'
p2611
sg74
g13
(g14
g15
NtRp2612
(dp2613
g18
I1
sg19
I0
sg20
I48
sg21
I0
sg22
I0
sg23
I0
sg24
I0
sbssg25
S'\xf1\t\xe5\x9e%\x1a\x80\xae\xfd\x7f\x02\x1f\xf0j\xe6\x02'
p2614
ssS'_usr_local_lib_python2_7_dist-packages_django_test_utils'
p2615
(dp2616
g6
(dp2617
g8
S'_usr_local_lib_python2_7_dist-packages_django_test_utils.html'
p2618
sg10
S'/usr/local/lib/python2.7/dist-packages/django/test/utils'
p2619
sg12
g13
(g14
g15
NtRp2620
(dp2621
g18
I1
sg19
I0
sg20
I301
sg21
I0
sg22
I0
sg23
I200
sg24
I0
sbssg25
S'$\x0b\xa9\x8f+x\x9f\xadl\x93\xd7 \niIR'
p2622
ssS'_usr_local_lib_python2_7_dist-packages_django_contrib_staticfiles_urls'
p2623
(dp2624
g6
(dp2625
g8
S'_usr_local_lib_python2_7_dist-packages_django_contrib_staticfiles_urls.html'
p2626
sg10
S'/usr/local/lib/python2.7/dist-packages/django/contrib/staticfiles/urls'
p2627
sg12
g13
(g14
g15
NtRp2628
(dp2629
g18
I1
sg19
I0
sg20
I9
sg21
I0
sg22
I0
sg23
I1
sg24
I0
sbssg25
S'\x92r\x94\xc7\x0eC\xdf\xe1\xe3\xa3\xea\x8d/\xd8\xf4\x15'
p2630
ssS'_usr_local_lib_python2_7_dist-packages_django_contrib_staticfiles___init__'
p2631
(dp2632
g6
(dp2633
g8
S'_usr_local_lib_python2_7_dist-packages_django_contrib_staticfiles___init__.html'
p2634
sg10
S'/usr/local/lib/python2.7/dist-packages/django/contrib/staticfiles/__init__'
p2635
sg12
g13
(g14
g15
NtRp2636
(dp2637
g18
I1
sg19
I0
sg20
I1
sg21
I0
sg22
I0
sg23
I0
sg24
I0
sbssg25
S'\n\xf5w\xa9q\x7f\x1f\xd1\xd9\x7f\xf5e\xee\xf4\x08\xcb'
p2638
ssS'_usr_local_lib_python2_7_dist-packages_testtools_testcase'
p2639
(dp2640
g147
(dp2641
g105
S'_usr_local_lib_python2_7_dist-packages_testtools_testcase.html'
p2642
sg107
S'/usr/local/lib/python2.7/dist-packages/testtools/testcase'
p2643
sg109
g13
(g14
g15
NtRp2644
(dp2645
g18
I1
sg19
I0
sg20
I419
sg21
I0
sg22
I0
sg23
I301
sg24
I0
sbssg153
S'\x17Vb\x8atG\xd7c<=o@\x96/\xe9~'
p2646
ssS'_usr_local_lib_python2_7_dist-packages_django_contrib_admin_exceptions'
p2647
(dp2648
g6
(dp2649
g8
S'_usr_local_lib_python2_7_dist-packages_django_contrib_admin_exceptions.html'
p2650
sg10
S'/usr/local/lib/python2.7/dist-packages/django/contrib/admin/exceptions'
p2651
sg12
g13
(g14
g15
NtRp2652
(dp2653
g18
I1
sg19
I0
sg20
I5
sg21
I0
sg22
I0
sg23
I0
sg24
I0
sbssg25
S'M \xcd\x88l\xc5A\x88\x80\xbd\xc1\x08\xd9\x9b\xf88'
p2654
ssS'_usr_local_lib_python2_7_dist-packages_django_contrib_admin_validation'
p2655
(dp2656
g6
(dp2657
g8
S'_usr_local_lib_python2_7_dist-packages_django_contrib_admin_validation.html'
p2658
sg10
S'/usr/local/lib/python2.7/dist-packages/django/contrib/admin/validation'
p2659
sg12
g13
(g14
g15
NtRp2660
(dp2661
g18
I1
sg19
I0
sg20
I259
sg21
I0
sg22
I0
sg23
I214
sg24
I0
sbssg25
S'd\xe9\xa9\xdb\x8b\x8e\x92\xe3\x1b\xbd#\x83:\x13\xecy'
p2662
ssS'_usr_local_lib_python2_7_dist-packages_testtools_monkey'
p2663
(dp2664
g147
(dp2665
g105
S'_usr_local_lib_python2_7_dist-packages_testtools_monkey.html'
p2666
sg107
S'/usr/local/lib/python2.7/dist-packages/testtools/monkey'
p2667
sg109
g13
(g14
g15
NtRp2668
(dp2669
g18
I1
sg19
I0
sg20
I31
sg21
I0
sg22
I0
sg23
I21
sg24
I0
sbssg153
S'=(\xc7h(\xf2sn\xc4\xe8\xce\x8d\xbf\xef>\xab'
p2670
ssS'_usr_local_lib_python2_7_dist-packages_lettuce_core'
p2671
(dp2672
g147
(dp2673
g105
S'_usr_local_lib_python2_7_dist-packages_lettuce_core.html'
p2674
sg107
S'/usr/local/lib/python2.7/dist-packages/lettuce/core'
p2675
sg109
g13
(g14
g15
NtRp2676
(dp2677
g18
I1
sg19
I0
sg20
I819
sg21
I0
sg22
I0
sg23
I642
sg24
I0
sbssg153
S'\xcc|YE{\xdf\xfd\xc6\xc4Q4\x07\x93\xe5\xaa\x02'
p2678
ssS'_usr_local_lib_python2_7_dist-packages_lettuce_django_management___init__'
p2679
(dp2680
g147
(dp2681
g105
S'_usr_local_lib_python2_7_dist-packages_lettuce_django_management___init__.html'
p2682
sg107
S'/usr/local/lib/python2.7/dist-packages/lettuce/django/management/__init__'
p2683
sg109
g13
(g14
g15
NtRp2684
(dp2685
g18
I1
sg19
I0
sg20
I0
sg21
I0
sg22
I0
sg23
I0
sg24
I0
sbssg153
S'6\xb8Q\xe6\x96\x1b\xd1\x1fG4\xc3\x167\xc4\xd2\xfe'
p2686
ssS'_usr_local_lib_python2_7_dist-packages_django_contrib_admin_actions'
p2687
(dp2688
g6
(dp2689
g8
S'_usr_local_lib_python2_7_dist-packages_django_contrib_admin_actions.html'
p2690
sg10
S'/usr/local/lib/python2.7/dist-packages/django/contrib/admin/actions'
p2691
sg12
g13
(g14
g15
NtRp2692
(dp2693
g18
I1
sg19
I0
sg20
I35
sg21
I0
sg22
I0
sg23
I25
sg24
I0
sbssg25
S'l\xcfB\x96k\xf5\x83\x85 \xa47\x92\x17\xa1\x99\x8d'
p2694
ssS'_usr_local_lib_python2_7_dist-packages_django_contrib_admin_migrations___init__'
p2695
(dp2696
g6
(dp2697
g8
S'_usr_local_lib_python2_7_dist-packages_django_contrib_admin_migrations___init__.html'
p2698
sg10
S'/usr/local/lib/python2.7/dist-packages/django/contrib/admin/migrations/__init__'
p2699
sg12
g13
(g14
g15
NtRp2700
(dp2701
g18
I1
sg19
I0
sg20
I0
sg21
I0
sg22
I0
sg23
I0
sg24
I0
sbssg25
S'\xca\xf5\x9f\x7f\x88\xdfa\x831|T\x1d\xbc}\xa5v'
p2702
ssS'app1_migrations___init__'
p2703
(dp2704
g6
(dp2705
g8
S'app1_migrations___init__.html'
p2706
sg10
S'app1/migrations/__init__'
p2707
sg12
g13
(g14
g15
NtRp2708
(dp2709
g18
I1
sg19
I0
sg20
I0
sg21
I0
sg22
I0
sg23
I0
sg24
I0
sbssg25
S'\xca\xf5\x9f\x7f\x88\xdfa\x831|T\x1d\xbc}\xa5v'
p2710
ssS'_usr_local_lib_python2_7_dist-packages_django_core_management_commands_dumpdata'
p2711
(dp2712
g6
(dp2713
g8
S'_usr_local_lib_python2_7_dist-packages_django_core_management_commands_dumpdata.html'
p2714
sg10
S'/usr/local/lib/python2.7/dist-packages/django/core/management/commands/dumpdata'
p2715
sg12
g13
(g14
g15
NtRp2716
(dp2717
g18
I1
sg19
I0
sg20
I145
sg21
I0
sg22
I0
sg23
I91
sg24
I0
sbssg25
S'K<\x1a \xbbtZ(\x19\xa1\x05\x12\xe9c\xd7\x95'
p2718
ssS'_usr_local_lib_python2_7_dist-packages_django_db_migrations_graph'
p2719
(dp2720
g6
(dp2721
g8
S'_usr_local_lib_python2_7_dist-packages_django_db_migrations_graph.html'
p2722
sg10
S'/usr/local/lib/python2.7/dist-packages/django/db/migrations/graph'
p2723
sg12
g13
(g14
g15
NtRp2724
(dp2725
g18
I1
sg19
I0
sg20
I77
sg21
I0
sg22
I0
sg23
I8
sg24
I0
sbssg25
S'z8\x94\xf8\x1e\xfc\x14\xc8\xc9p\x88n~8+\x8c'
p2726
ssS'_usr_local_lib_python2_7_dist-packages_django_template_context'
p2727
(dp2728
g6
(dp2729
g70
S'_usr_local_lib_python2_7_dist-packages_django_template_context.html'
p2730
sg72
S'/usr/local/lib/python2.7/dist-packages/django/template/context'
p2731
sg74
g13
(g14
g15
NtRp2732
(dp2733
g18
I1
sg19
I0
sg20
I121
sg21
I0
sg22
I0
sg23
I42
sg24
I0
sbssg25
S'M\x98y\x0bl\xc2\x15\xb2\x83R\xa5{\\\xc3~\x00'
p2734
ssS'_usr_local_lib_python2_7_dist-packages_django_db_models_sql_expressions'
p2735
(dp2736
g6
(dp2737
g8
S'_usr_local_lib_python2_7_dist-packages_django_db_models_sql_expressions.html'
p2738
sg10
S'/usr/local/lib/python2.7/dist-packages/django/db/models/sql/expressions'
p2739
sg12
g13
(g14
g15
NtRp2740
(dp2741
g18
I1
sg19
I0
sg20
I83
sg21
I0
sg22
I0
sg23
I68
sg24
I0
sbssg25
S' \xd3\x01\x8a\x81\xb16\xf9\xca1-\xa9\x10FV\x8f'
p2742
ssS'_usr_local_lib_python2_7_dist-packages_django_core_files_locks'
p2743
(dp2744
g6
(dp2745
g8
S'_usr_local_lib_python2_7_dist-packages_django_core_files_locks.html'
p2746
sg10
S'/usr/local/lib/python2.7/dist-packages/django/core/files/locks'
p2747
sg12
g13
(g14
g15
NtRp2748
(dp2749
g18
I1
sg19
I0
sg20
I57
sg21
I0
sg22
I0
sg23
I46
sg24
I0
sbssg25
S';4F\xa2\x0bH\xcbk>\x84\x93\x9f\x0f3\xb1\xc5'
p2750
ssS'_usr_local_lib_python2_7_dist-packages_mimeparse'
p2751
(dp2752
g147
(dp2753
g105
S'_usr_local_lib_python2_7_dist-packages_mimeparse.html'
p2754
sg107
S'/usr/local/lib/python2.7/dist-packages/mimeparse'
p2755
sg109
g13
(g14
g15
NtRp2756
(dp2757
g18
I1
sg19
I0
sg20
I54
sg21
I0
sg22
I0
sg23
I41
sg24
I0
sbssg153
S'\x00\xa8;#\xfaZ\xff\xf0\xdaK\xf9\xf8\xd3\xb8\x81\xf3'
p2758
ssS'_usr_local_lib_python2_7_dist-packages_django_utils_termcolors'
p2759
(dp2760
g6
(dp2761
g8
S'_usr_local_lib_python2_7_dist-packages_django_utils_termcolors.html'
p2762
sg10
S'/usr/local/lib/python2.7/dist-packages/django/utils/termcolors'
p2763
sg12
g13
(g14
g15
NtRp2764
(dp2765
g18
I1
sg19
I0
sg20
I57
sg21
I0
sg22
I0
sg23
I40
sg24
I0
sbssg25
S'\x9a\x02\x0e\xa9\xc9p\xc0\xb9)\xb6\x9b2\x90^\xbd\xea'
p2766
ssS'_usr_local_lib_python2_7_dist-packages_django_template_response'
p2767
(dp2768
g6
(dp2769
g8
S'_usr_local_lib_python2_7_dist-packages_django_template_response.html'
p2770
sg10
S'/usr/local/lib/python2.7/dist-packages/django/template/response'
p2771
sg12
g13
(g14
g15
NtRp2772
(dp2773
g18
I1
sg19
I0
sg20
I72
sg21
I0
sg22
I0
sg23
I50
sg24
I0
sbssg25
S'\xe0o]\x1f\x01\x1b7,*\x93+\xff\x96=i\x83'
p2774
ssS'_usr_local_lib_python2_7_dist-packages_django_http_multipartparser'
p2775
(dp2776
g6
(dp2777
g70
S'_usr_local_lib_python2_7_dist-packages_django_http_multipartparser.html'
p2778
sg72
S'/usr/local/lib/python2.7/dist-packages/django/http/multipartparser'
p2779
sg74
g13
(g14
g15
NtRp2780
(dp2781
g18
I1
sg19
I0
sg20
I351
sg21
I0
sg22
I0
sg23
I90
sg24
I0
sbssg25
S'\xa5\xd1\xbcR>\xf9\x18\x97\xa46\x07\x12\xb8l\xa7R'
p2782
ssS'_usr_local_lib_python2_7_dist-packages_django_core_checks_compatibility_django_1_7_0'
p2783
(dp2784
g6
(dp2785
g8
S'_usr_local_lib_python2_7_dist-packages_django_core_checks_compatibility_django_1_7_0.html'
p2786
sg10
S'/usr/local/lib/python2.7/dist-packages/django/core/checks/compatibility/django_1_7_0'
p2787
sg12
g13
(g14
g15
NtRp2788
(dp2789
g18
I1
sg19
I0
sg20
I11
sg21
I0
sg22
I0
sg23
I1
sg24
I0
sbssg25
S's\xa36\x93\xe9\x82\xe3\xfbcAm\xe9j\x1e\xcc\xfd'
p2790
ssS'_usr_local_lib_python2_7_dist-packages_django_core_mail_message'
p2791
(dp2792
g6
(dp2793
g8
S'_usr_local_lib_python2_7_dist-packages_django_core_mail_message.html'
p2794
sg10
S'/usr/local/lib/python2.7/dist-packages/django/core/mail/message'
p2795
sg12
g13
(g14
g15
NtRp2796
(dp2797
g18
I1
sg19
I0
sg20
I242
sg21
I0
sg22
I0
sg23
I182
sg24
I0
sbssg25
S'\xe4\x0b\x94\xf3\xe2\xb6\xf7(\xba;\x8a\x81[\xd9y\xa9'
p2798
ssS'_usr_local_lib_python2_7_dist-packages_django_utils_dateparse'
p2799
(dp2800
g6
(dp2801
g8
S'_usr_local_lib_python2_7_dist-packages_django_utils_dateparse.html'
p2802
sg10
S'/usr/local/lib/python2.7/dist-packages/django/utils/dateparse'
p2803
sg12
g13
(g14
g15
NtRp2804
(dp2805
g18
I1
sg19
I0
sg20
I38
sg21
I0
sg22
I0
sg23
I17
sg24
I0
sbssg25
S'\xcb\xb3\xdf\x94\xd8\x91^\xb3\x91\x8ab\xc4\xd3{\xc1\xfb'
p2806
ssS'_usr_local_lib_python2_7_dist-packages_django_db_models_deletion'
p2807
(dp2808
g6
(dp2809
g8
S'_usr_local_lib_python2_7_dist-packages_django_db_models_deletion.html'
p2810
sg10
S'/usr/local/lib/python2.7/dist-packages/django/db/models/deletion'
p2811
sg12
g13
(g14
g15
NtRp2812
(dp2813
g18
I1
sg19
I0
sg20
I154
sg21
I0
sg22
I0
sg23
I65
sg24
I0
sbssg25
S'"\x08m\xec\xa4\x13\x07\n\xafE\x8e\xe6k\xcf\x95%'
p2814
ssS'_usr_local_lib_python2_7_dist-packages_django_db_models_fields_related'
p2815
(dp2816
g6
(dp2817
g105
S'_usr_local_lib_python2_7_dist-packages_django_db_models_fields_related.html'
p2818
sg107
S'/usr/local/lib/python2.7/dist-packages/django/db/models/fields/related'
p2819
sg109
g13
(g14
g15
NtRp2820
(dp2821
g18
I1
sg19
I0
sg20
I1181
sg21
I0
sg22
I0
sg23
I532
sg24
I0
sbssg25
S'\xe5\x85p\xd9e\x1e\x9a\t:\x8a\xe2\xdcY\x85\xb5\xba'
p2822
ssS'_usr_local_lib_python2_7_dist-packages_django_utils_xmlutils'
p2823
(dp2824
g6
(dp2825
g8
S'_usr_local_lib_python2_7_dist-packages_django_utils_xmlutils.html'
p2826
sg10
S'/usr/local/lib/python2.7/dist-packages/django/utils/xmlutils'
p2827
sg12
g13
(g14
g15
NtRp2828
(dp2829
g18
I1
sg19
I0
sg20
I9
sg21
I0
sg22
I0
sg23
I6
sg24
I0
sbssg25
S'#\x9f\x92\x9d2\xeb\xac\x95\x9a\x19\x9e\xe8\xd6 \xaf\x8c'
p2830
ssS'_usr_local_lib_python2_7_dist-packages_django_contrib_staticfiles_templatetags___init__'
p2831
(dp2832
g221
(dp2833
g70
S'_usr_local_lib_python2_7_dist-packages_django_contrib_staticfiles_templatetags___init__.html'
p2834
sg72
S'/usr/local/lib/python2.7/dist-packages/django/contrib/staticfiles/templatetags/__init__'
p2835
sg74
g13
(g14
g15
NtRp2836
(dp2837
g18
I1
sg19
I0
sg20
I0
sg21
I0
sg22
I0
sg23
I0
sg24
I0
sbssg227
S'\xca\xf5\x9f\x7f\x88\xdfa\x831|T\x1d\xbc}\xa5v'
p2838
ssS'_usr_local_lib_python2_7_dist-packages_fuzzywuzzy_StringMatcher'
p2839
(dp2840
g147
(dp2841
g105
S'_usr_local_lib_python2_7_dist-packages_fuzzywuzzy_StringMatcher.html'
p2842
sg107
S'/usr/local/lib/python2.7/dist-packages/fuzzywuzzy/StringMatcher'
p2843
sg109
g13
(g14
g15
NtRp2844
(dp2845
g18
I1
sg19
I0
sg20
I52
sg21
I0
sg22
I0
sg23
I50
sg24
I0
sbssg153
S'4\xcc>\xd3\xbf\xd8e\x83\xa2\xc1\xfc\xf1\xad\xe5\x86\xe2'
p2846
ssS'_usr_local_lib_python2_7_dist-packages_django_core_context_processors'
p2847
(dp2848
g6
(dp2849
g70
S'_usr_local_lib_python2_7_dist-packages_django_core_context_processors.html'
p2850
sg72
S'/usr/local/lib/python2.7/dist-packages/django/core/context_processors'
p2851
sg74
g13
(g14
g15
NtRp2852
(dp2853
g18
I1
sg19
I0
sg20
I37
sg21
I0
sg22
I0
sg23
I18
sg24
I0
sbssg25
S'\x99n\x01Z\xf3\xf5\x8c\xd1\x9a.\xc9\xb8\xac\x94\t\xb3'
p2854
ssS'userprofile_urls'
p2855
(dp2856
g6
(dp2857
g8
S'userprofile_urls.html'
p2858
sg10
S'userprofile/urls'
p2859
sg12
g13
(g14
g15
NtRp2860
(dp2861
g18
I1
sg19
I0
sg20
I7
sg21
I0
sg22
I0
sg23
I0
sg24
I0
sbssg25
S'\x92\xd9u\xa993/\xa2`\xe8\xf1)J\x1f\x83#'
p2862
ssS'_usr_local_lib_python2_7_dist-packages_django_db_models_sql_aggregates'
p2863
(dp2864
g6
(dp2865
g8
S'_usr_local_lib_python2_7_dist-packages_django_db_models_sql_aggregates.html'
p2866
sg10
S'/usr/local/lib/python2.7/dist-packages/django/db/models/sql/aggregates'
p2867
sg12
g13
(g14
g15
NtRp2868
(dp2869
g18
I1
sg19
I0
sg20
I70
sg21
I0
sg22
I0
sg23
I34
sg24
I0
sbssg25
S']\xe3m\xffj\xab\xaeMKx\xf5\x12(\xc3\x96\xd0'
p2870
ssS'_usr_local_lib_python2_7_dist-packages_django_utils_log'
p2871
(dp2872
g6
(dp2873
g105
S'_usr_local_lib_python2_7_dist-packages_django_utils_log.html'
p2874
sg107
S'/usr/local/lib/python2.7/dist-packages/django/utils/log'
p2875
sg109
g13
(g14
g15
NtRp2876
(dp2877
g18
I1
sg19
I0
sg20
I65
sg21
I0
sg22
I0
sg23
I26
sg24
I0
sbssg25
S"xAw/#\x11F\xfb)'\x95\xc2#\x9c}\x8e"
p2878
ssS'_usr_local_lib_python2_7_dist-packages_django_core_cache_backends___init__'
p2879
(dp2880
g6
(dp2881
g8
S'_usr_local_lib_python2_7_dist-packages_django_core_cache_backends___init__.html'
p2882
sg10
S'/usr/local/lib/python2.7/dist-packages/django/core/cache/backends/__init__'
p2883
sg12
g13
(g14
g15
NtRp2884
(dp2885
g18
I1
sg19
I0
sg20
I0
sg21
I0
sg22
I0
sg23
I0
sg24
I0
sbssg25
S'\xca\xf5\x9f\x7f\x88\xdfa\x831|T\x1d\xbc}\xa5v'
p2886
ssS'_usr_local_lib_python2_7_dist-packages_lettuce_terrain'
p2887
(dp2888
g147
(dp2889
g105
S'_usr_local_lib_python2_7_dist-packages_lettuce_terrain.html'
p2890
sg107
S'/usr/local/lib/python2.7/dist-packages/lettuce/terrain'
p2891
sg109
g13
(g14
g15
NtRp2892
(dp2893
g18
I1
sg19
I0
sg20
I27
sg21
I0
sg22
I0
sg23
I6
sg24
I0
sbssg153
S"\x1a5\xc4\x80M\xa9\xdc\xeaU'\x92f)\t\x94~"
p2894
ssS'_usr_local_lib_python2_7_dist-packages_testtools_matchers__higherorder'
p2895
(dp2896
g147
(dp2897
g105
S'_usr_local_lib_python2_7_dist-packages_testtools_matchers__higherorder.html'
p2898
sg107
S'/usr/local/lib/python2.7/dist-packages/testtools/matchers/_higherorder'
p2899
sg109
g13
(g14
g15
NtRp2900
(dp2901
g18
I1
sg19
I0
sg20
I165
sg21
I0
sg22
I0
sg23
I107
sg24
I0
sbssg153
S'\xc6\x16{b\xc6\xd2\x08@\x1b\x86^\x8a\xb1\xcdv\x9a'
p2902
ssS'_usr_local_lib_python2_7_dist-packages_django_utils_text'
p2903
(dp2904
g6
(dp2905
g70
S'_usr_local_lib_python2_7_dist-packages_django_utils_text.html'
p2906
sg72
S'/usr/local/lib/python2.7/dist-packages/django/utils/text'
p2907
sg74
g13
(g14
g15
NtRp2908
(dp2909
g18
I1
sg19
I0
sg20
I239
sg21
I0
sg22
I0
sg23
I167
sg24
I0
sbssg25
S'?y\xa2\x19\xdc\xb8\x86U\xb8\xe8\xbea\xc3\x115+'
p2910
ssS'_usr_local_lib_python2_7_dist-packages_testtools_matchers__datastructures'
p2911
(dp2912
g147
(dp2913
g105
S'_usr_local_lib_python2_7_dist-packages_testtools_matchers__datastructures.html'
p2914
sg107
S'/usr/local/lib/python2.7/dist-packages/testtools/matchers/_datastructures'
p2915
sg109
g13
(g14
g15
NtRp2916
(dp2917
g18
I1
sg19
I0
sg20
I101
sg21
I0
sg22
I0
sg23
I82
sg24
I0
sbssg153
S'E6\xb4\xac\xb5|\xccveo,\x88\x9d\x02\x84\x0e'
p2918
ssS'_usr_local_lib_python2_7_dist-packages_django_utils__os'
p2919
(dp2920
g6
(dp2921
g8
S'_usr_local_lib_python2_7_dist-packages_django_utils__os.html'
p2922
sg10
S'/usr/local/lib/python2.7/dist-packages/django/utils/_os'
p2923
sg12
g13
(g14
g15
NtRp2924
(dp2925
g18
I1
sg19
I0
sg20
I58
sg21
I0
sg22
I0
sg23
I26
sg24
I0
sbssg25
S'\x82Z\x91\x89\xe3\x04\xb6\xbc\xa9\x00_2\n\xdd\x7f\xb8'
p2926
ssS'_usr_local_lib_python2_7_dist-packages_django_db_models_sql___init__'
p2927
(dp2928
g6
(dp2929
g8
S'_usr_local_lib_python2_7_dist-packages_django_db_models_sql___init__.html'
p2930
sg10
S'/usr/local/lib/python2.7/dist-packages/django/db/models/sql/__init__'
p2931
sg12
g13
(g14
g15
NtRp2932
(dp2933
g18
I1
sg19
I0
sg20
I5
sg21
I0
sg22
I0
sg23
I0
sg24
I0
sbssg25
S'\xe0&\xa6\xf7x\xac\xe6\xde\xb7\xfb\x06\xee\xe3P^g'
p2934
ssS'_usr_local_lib_python2_7_dist-packages_django_forms_formsets'
p2935
(dp2936
g6
(dp2937
g8
S'_usr_local_lib_python2_7_dist-packages_django_forms_formsets.html'
p2938
sg10
S'/usr/local/lib/python2.7/dist-packages/django/forms/formsets'
p2939
sg12
g13
(g14
g15
NtRp2940
(dp2941
g18
I1
sg19
I0
sg20
I221
sg21
I0
sg22
I0
sg23
I160
sg24
I0
sbssg25
S';\xcc\xcaO\x97\xb8\xc4t\xa6\xfc_7\xf2\x81\nM'
p2942
ssS'_usr_local_lib_python2_7_dist-packages_django_shortcuts'
p2943
(dp2944
g6
(dp2945
g70
S'_usr_local_lib_python2_7_dist-packages_django_shortcuts.html'
p2946
sg72
S'/usr/local/lib/python2.7/dist-packages/django/shortcuts'
p2947
sg74
g13
(g14
g15
NtRp2948
(dp2949
g18
I1
sg19
I0
sg20
I64
sg21
I0
sg22
I0
sg23
I38
sg24
I0
sbssg25
S'N,\x8e\xcb\xad\x01\x8fx\xba\xd3\x04:\x12*\xef '
p2950
ssS'_usr_local_lib_python2_7_dist-packages_django_utils_synch'
p2951
(dp2952
g6
(dp2953
g8
S'_usr_local_lib_python2_7_dist-packages_django_utils_synch.html'
p2954
sg10
S'/usr/local/lib/python2.7/dist-packages/django/utils/synch'
p2955
sg12
g13
(g14
g15
NtRp2956
(dp2957
g18
I1
sg19
I0
sg20
I59
sg21
I0
sg22
I0
sg23
I41
sg24
I0
sbssg25
S'XcEAm1o\x86 G\xd3\x04\xbb)7z'
p2958
ssS'_usr_local_lib_python2_7_dist-packages_django_test_testcases'
p2959
(dp2960
g6
(dp2961
g288
S'_usr_local_lib_python2_7_dist-packages_django_test_testcases.html'
p2962
sg290
S'/usr/local/lib/python2.7/dist-packages/django/test/testcases'
p2963
sg292
g13
(g14
g15
NtRp2964
(dp2965
g18
I1
sg19
I0
sg20
I604
sg21
I0
sg22
I0
sg23
I396
sg24
I0
sbssg25
S'\xe0R\xf1\x15)S\xccF8\x11X\xccd\x9d\x96\xe6'
p2966
ssS'_usr_local_lib_python2_7_dist-packages_django_forms_fields'
p2967
(dp2968
g6
(dp2969
g70
S'_usr_local_lib_python2_7_dist-packages_django_forms_fields.html'
p2970
sg72
S'/usr/local/lib/python2.7/dist-packages/django/forms/fields'
p2971
sg74
g13
(g14
g15
NtRp2972
(dp2973
g18
I1
sg19
I0
sg20
I676
sg21
I0
sg22
I0
sg23
I429
sg24
I0
sbssg25
S'5\x02U"\x94\x96\x1cB{\xa5\x05G\x9bh\xde\x92'
p2974
ssS'_usr_local_lib_python2_7_dist-packages_unittest2_signals'
p2975
(dp2976
g147
(dp2977
g105
S'_usr_local_lib_python2_7_dist-packages_unittest2_signals.html'
p2978
sg107
S'/usr/local/lib/python2.7/dist-packages/unittest2/signals'
p2979
sg109
g13
(g14
g15
NtRp2980
(dp2981
g18
I1
sg19
I0
sg20
I47
sg21
I0
sg22
I0
sg23
I34
sg24
I0
sbssg153
S'\xa2\xfe1\xe4\t\xdd\xb1\x9f\x90\x0b\x938\xda\xf9\xeb\x17'
p2982
ssS'_usr_local_lib_python2_7_dist-packages_django_db_migrations___init__'
p2983
(dp2984
g6
(dp2985
g8
S'_usr_local_lib_python2_7_dist-packages_django_db_migrations___init__.html'
p2986
sg10
S'/usr/local/lib/python2.7/dist-packages/django/db/migrations/__init__'
p2987
sg12
g13
(g14
g15
NtRp2988
(dp2989
g18
I1
sg19
I0
sg20
I2
sg21
I0
sg22
I0
sg23
I0
sg24
I0
sbssg25
S'`j\xe71\xb5\xd6\x16\xd3Kw\xba^\x04:M\xf2'
p2990
ssS'_usr_local_lib_python2_7_dist-packages_django_contrib___init__'
p2991
(dp2992
g6
(dp2993
g8
S'_usr_local_lib_python2_7_dist-packages_django_contrib___init__.html'
p2994
sg10
S'/usr/local/lib/python2.7/dist-packages/django/contrib/__init__'
p2995
sg12
g13
(g14
g15
NtRp2996
(dp2997
g18
I1
sg19
I0
sg20
I0
sg21
I0
sg22
I0
sg23
I0
sg24
I0
sbssg25
S'\xca\xf5\x9f\x7f\x88\xdfa\x831|T\x1d\xbc}\xa5v'
p2998
ssS'_usr_local_lib_python2_7_dist-packages_pytz_tzinfo'
p2999
(dp3000
g6
(dp3001
g8
S'_usr_local_lib_python2_7_dist-packages_pytz_tzinfo.html'
p3002
sg10
S'/usr/local/lib/python2.7/dist-packages/pytz/tzinfo'
p3003
sg12
g13
(g14
g15
NtRp3004
(dp3005
g18
I1
sg19
I0
sg20
I178
sg21
I0
sg22
I0
sg23
I91
sg24
I0
sbssg25
S'\x05\x9c\x1fv[\x89+\xa9\x05\xe3%\x17\xec\xd4\x1e\xda'
p3006
ssS'_usr_local_lib_python2_7_dist-packages_lettuce_django___init__'
p3007
(dp3008
g147
(dp3009
g105
S'_usr_local_lib_python2_7_dist-packages_lettuce_django___init__.html'
p3010
sg107
S'/usr/local/lib/python2.7/dist-packages/lettuce/django/__init__'
p3011
sg109
g13
(g14
g15
NtRp3012
(dp3013
g18
I1
sg19
I0
sg20
I12
sg21
I0
sg22
I0
sg23
I7
sg24
I0
sbssg153
S'x\x83\xe9N3}U^\xef>\xd1\x05\x1d\\3\x9e'
p3014
ssS'_usr_local_lib_python2_7_dist-packages_pytz___init__'
p3015
(dp3016
g6
(dp3017
g8
S'_usr_local_lib_python2_7_dist-packages_pytz___init__.html'
p3018
sg10
S'/usr/local/lib/python2.7/dist-packages/pytz/__init__'
p3019
sg12
g13
(g14
g15
NtRp3020
(dp3021
g18
I1
sg19
I0
sg20
I181
sg21
I0
sg22
I0
sg23
I87
sg24
I0
sbssg25
S'\xf9\xae\x01\xc1D7|\xd7?\xc8 u\xcco\x878'
p3022
ssS'_usr_local_lib_python2_7_dist-packages_django_conf_global_settings'
p3023
(dp3024
g6
(dp3025
g8
S'_usr_local_lib_python2_7_dist-packages_django_conf_global_settings.html'
p3026
sg10
S'/usr/local/lib/python2.7/dist-packages/django/conf/global_settings'
p3027
sg12
g13
(g14
g15
NtRp3028
(dp3029
g18
I1
sg19
I0
sg20
I130
sg21
I0
sg22
I0
sg23
I0
sg24
I0
sbssg25
S'M\x9e\x92\xfe\x88\xe8sP\x0e\x98\xea\xc7Bkq\x7f'
p3030
ssS'_usr_local_lib_python2_7_dist-packages_pytz_tzfile'
p3031
(dp3032
g6
(dp3033
g8
S'_usr_local_lib_python2_7_dist-packages_pytz_tzfile.html'
p3034
sg10
S'/usr/local/lib/python2.7/dist-packages/pytz/tzfile'
p3035
sg12
g13
(g14
g15
NtRp3036
(dp3037
g18
I1
sg19
I0
sg20
I81
sg21
I0
sg22
I0
sg23
I19
sg24
I0
sbssg25
S'\xc9\xc4j\xca\xf4\xeaen\x9d\xedi/&\x9ad\xd4'
p3038
ssS'_usr_local_lib_python2_7_dist-packages_django_db_migrations_writer'
p3039
(dp3040
g6
(dp3041
g8
S'_usr_local_lib_python2_7_dist-packages_django_db_migrations_writer.html'
p3042
sg10
S'/usr/local/lib/python2.7/dist-packages/django/db/migrations/writer'
p3043
sg12
g13
(g14
g15
NtRp3044
(dp3045
g18
I1
sg19
I0
sg20
I266
sg21
I0
sg22
I0
sg23
I226
sg24
I0
sbssg25
S'\xb9E?\xb1\\x\x9f\x9e\x88\xf6|\xe4\xc9\t\xc2\xfc'
p3046
ssS'_usr_local_lib_python2_7_dist-packages_django_dispatch_weakref_backports'
p3047
(dp3048
g6
(dp3049
g8
S'_usr_local_lib_python2_7_dist-packages_django_dispatch_weakref_backports.html'
p3050
sg10
S'/usr/local/lib/python2.7/dist-packages/django/dispatch/weakref_backports'
p3051
sg12
g13
(g14
g15
NtRp3052
(dp3053
g18
I1
sg19
I0
sg20
I40
sg21
I0
sg22
I0
sg23
I12
sg24
I0
sbssg25
S'\xb5\xb3>"H%z\x1f\xd0t\xfe\x85\xe6\xfa\xd8\xff'
p3054
ssS'_usr_local_lib_python2_7_dist-packages_django_template_defaulttags'
p3055
(dp3056
g6
(dp3057
g70
S'_usr_local_lib_python2_7_dist-packages_django_template_defaulttags.html'
p3058
sg72
S'/usr/local/lib/python2.7/dist-packages/django/template/defaulttags'
p3059
sg74
g13
(g14
g15
NtRp3060
(dp3061
g18
I1
sg19
I0
sg20
I621
sg21
I0
sg22
I0
sg23
I411
sg24
I0
sbssg25
S'\xb1\x85\xe4s/p\xcf\x04\n\xadW\xca\xc5\x05w\x07'
p3062
ssS'_usr_local_lib_python2_7_dist-packages_django_core_handlers_wsgi'
p3063
(dp3064
g6
(dp3065
g70
S'_usr_local_lib_python2_7_dist-packages_django_core_handlers_wsgi.html'
p3066
sg72
S'/usr/local/lib/python2.7/dist-packages/django/core/handlers/wsgi'
p3067
sg74
g13
(g14
g15
NtRp3068
(dp3069
g18
I1
sg19
I0
sg20
I160
sg21
I0
sg22
I0
sg23
I49
sg24
I0
sbssg25
S'\x94\x98\x15\xa9p\x8d\x7f\x1b\x9f\xa2=\x8f\xc8\x07\xfaf'
p3070
ssS'_usr_local_lib_python2_7_dist-packages_django_template_loaders_app_directories'
p3071
(dp3072
g6
(dp3073
g8
S'_usr_local_lib_python2_7_dist-packages_django_template_loaders_app_directories.html'
p3074
sg10
S'/usr/local/lib/python2.7/dist-packages/django/template/loaders/app_directories'
p3075
sg12
g13
(g14
g15
NtRp3076
(dp3077
g18
I1
sg19
I0
sg20
I42
sg21
I0
sg22
I0
sg23
I17
sg24
I0
sbssg25
S'\x85\xca\x18\x9eU\x8bu\xfd4\x85\xc8<\xc1+\xbd\xf1'
p3078
ssS'_usr_local_lib_python2_7_dist-packages_django_db_migrations_migration'
p3079
(dp3080
g6
(dp3081
g8
S'_usr_local_lib_python2_7_dist-packages_django_db_migrations_migration.html'
p3082
sg10
S'/usr/local/lib/python2.7/dist-packages/django/db/migrations/migration'
p3083
sg12
g13
(g14
g15
NtRp3084
(dp3085
g18
I1
sg19
I0
sg20
I78
sg21
I0
sg22
I0
sg23
I35
sg24
I0
sbssg25
S'fd\xb2\x01\x7f\xca\x9b\xa7],\xe1-\xaa\x91\xaf\xee'
p3086
ssS'_usr_local_lib_python2_7_dist-packages_django_contrib_sessions_models'
p3087
(dp3088
g6
(dp3089
g8
S'_usr_local_lib_python2_7_dist-packages_django_contrib_sessions_models.html'
p3090
sg10
S'/usr/local/lib/python2.7/dist-packages/django/contrib/sessions/models'
p3091
sg12
g13
(g14
g15
NtRp3092
(dp3093
g18
I1
sg19
I0
sg20
I24
sg21
I0
sg22
I0
sg23
I7
sg24
I0
sbssg25
S'\xdb/\xe7/\xd6\xed\xfa\xb4\xc4\x06Q\x93\xa3\xbcB!'
p3094
ssS'_usr_local_lib_python2_7_dist-packages_testtools_distutilscmd'
p3095
(dp3096
g147
(dp3097
g105
S'_usr_local_lib_python2_7_dist-packages_testtools_distutilscmd.html'
p3098
sg107
S'/usr/local/lib/python2.7/dist-packages/testtools/distutilscmd'
p3099
sg109
g13
(g14
g15
NtRp3100
(dp3101
g18
I1
sg19
I0
sg20
I35
sg21
I0
sg22
I0
sg23
I23
sg24
I0
sbssg153
S'|\x064\x00\xda\x1a!\xad\x97\xf4%\x0bdg\xbe*'
p3102
ssS'_usr_local_lib_python2_7_dist-packages_django_utils_encoding'
p3103
(dp3104
g6
(dp3105
g8
S'_usr_local_lib_python2_7_dist-packages_django_utils_encoding.html'
p3106
sg10
S'/usr/local/lib/python2.7/dist-packages/django/utils/encoding'
p3107
sg12
g13
(g14
g15
NtRp3108
(dp3109
g18
I1
sg19
I0
sg20
I98
sg21
I0
sg22
I0
sg23
I34
sg24
I0
sbssg25
S'\x97\xfdg\x12\xf6\xbf\xd6D\xd4\xcf\xd7\xb6\xc1\x84\x02\x85'
p3110
ssS'_usr_local_lib_python2_7_dist-packages_testtools___init__'
p3111
(dp3112
g147
(dp3113
g105
S'_usr_local_lib_python2_7_dist-packages_testtools___init__.html'
p3114
sg107
S'/usr/local/lib/python2.7/dist-packages/testtools/__init__'
p3115
sg109
g13
(g14
g15
NtRp3116
(dp3117
g18
I1
sg19
I0
sg20
I14
sg21
I0
sg22
I0
sg23
I2
sg24
I0
sbssg153
S'\x95\x87\xfd*aj\x03^!\x9c\xa3\x0e\xe1\r2J'
p3118
ssS'_usr_local_lib_python2_7_dist-packages_unittest2_util'
p3119
(dp3120
g147
(dp3121
g105
S'_usr_local_lib_python2_7_dist-packages_unittest2_util.html'
p3122
sg107
S'/usr/local/lib/python2.7/dist-packages/unittest2/util'
p3123
sg109
g13
(g14
g15
NtRp3124
(dp3125
g18
I1
sg19
I0
sg20
I102
sg21
I0
sg22
I0
sg23
I85
sg24
I0
sbssg153
S'\xfd\x17\xf4\xbf\xa8TA\xd1\xa6\x16\xc5\xfa\xf4\x94\xf8\xe6'
p3126
ssS'_usr_local_lib_python2_7_dist-packages_django_test_signals'
p3127
(dp3128
g6
(dp3129
g8
S'_usr_local_lib_python2_7_dist-packages_django_test_signals.html'
p3130
sg10
S'/usr/local/lib/python2.7/dist-packages/django/test/signals'
p3131
sg12
g13
(g14
g15
NtRp3132
(dp3133
g18
I1
sg19
I0
sg20
I79
sg21
I0
sg22
I0
sg23
I57
sg24
I0
sbssg25
S'\xf1\xb45\xec\x02\xf3\xa4\x1a\xe7xou\xeb}\xfb\xb4'
p3134
ssS'_usr_local_lib_python2_7_dist-packages_django_core_validators'
p3135
(dp3136
g6
(dp3137
g70
S'_usr_local_lib_python2_7_dist-packages_django_core_validators.html'
p3138
sg72
S'/usr/local/lib/python2.7/dist-packages/django/core/validators'
p3139
sg74
g13
(g14
g15
NtRp3140
(dp3141
g18
I1
sg19
I0
sg20
I178
sg21
I0
sg22
I0
sg23
I74
sg24
I0
sbssg25
S'D\x97M#\xdf^D\x06\xd2i\xb25t\x05gC'
p3142
ssS'_usr_local_lib_python2_7_dist-packages_lettuce_django_apps'
p3143
(dp3144
g147
(dp3145
g105
S'_usr_local_lib_python2_7_dist-packages_lettuce_django_apps.html'
p3146
sg107
S'/usr/local/lib/python2.7/dist-packages/lettuce/django/apps'
p3147
sg109
g13
(g14
g15
NtRp3148
(dp3149
g18
I1
sg19
I0
sg20
I38
sg21
I0
sg22
I0
sg23
I30
sg24
I0
sbssg153
S'\xbf\x88\xb5O\xad!\xa7\xdb\xf4\xd1\xa7TI\xba#z'
p3150
ssS'_usr_local_lib_python2_7_dist-packages_django_contrib_sites_requests'
p3151
(dp3152
g6
(dp3153
g8
S'_usr_local_lib_python2_7_dist-packages_django_contrib_sites_requests.html'
p3154
sg10
S'/usr/local/lib/python2.7/dist-packages/django/contrib/sites/requests'
p3155
sg12
g13
(g14
g15
NtRp3156
(dp3157
g18
I1
sg19
I0
sg20
I12
sg21
I0
sg22
I0
sg23
I4
sg24
I0
sbssg25
S'\x82\t\xca\x19\xff`,\xd2-\x83-\x87\xed\xac\xefi'
p3158
ssS'_usr_local_lib_python2_7_dist-packages_django_contrib_contenttypes_checks'
p3159
(dp3160
g6
(dp3161
g8
S'_usr_local_lib_python2_7_dist-packages_django_contrib_contenttypes_checks.html'
p3162
sg10
S'/usr/local/lib/python2.7/dist-packages/django/contrib/contenttypes/checks'
p3163
sg12
g13
(g14
g15
NtRp3164
(dp3165
g18
I1
sg19
I0
sg20
I10
sg21
I0
sg22
I0
sg23
I1
sg24
I0
sbssg25
S'n\xbcO\xc7R\x10\x98\xf4\x90\xb0\x1d\xb9\x891\x9bk'
p3166
ssS'_usr_local_lib_python2_7_dist-packages_django_views_debug'
p3167
(dp3168
g6
(dp3169
g8
S'_usr_local_lib_python2_7_dist-packages_django_views_debug.html'
p3170
sg10
S'/usr/local/lib/python2.7/dist-packages/django/views/debug'
p3171
sg12
g13
(g14
g15
NtRp3172
(dp3173
g18
I1
sg19
I0
sg20
I302
sg21
I0
sg22
I0
sg23
I250
sg24
I0
sbssg25
S':\xbb\xbc\xbdp[}\x95\xd9&\xaf\x8f\x8c\x8b\xb0\xc1'
p3174
ssS'app1_migrations_0013_auto_20141104_2323'
p3175
(dp3176
g6
(dp3177
g8
S'app1_migrations_0013_auto_20141104_2323.html'
p3178
sg10
S'app1/migrations/0013_auto_20141104_2323'
p3179
sg12
g13
(g14
g15
NtRp3180
(dp3181
g18
I1
sg19
I0
sg20
I6
sg21
I0
sg22
I0
sg23
I0
sg24
I0
sbssg25
S'\x9a\x9f\xb5\x9bA\xc2\x04\xa0\xb3\x1aD\xe8\xb9\xd2\x80\xc8'
p3182
ssS'_usr_local_lib_python2_7_dist-packages_django_core_cache___init__'
p3183
(dp3184
g6
(dp3185
g8
S'_usr_local_lib_python2_7_dist-packages_django_core_cache___init__.html'
p3186
sg10
S'/usr/local/lib/python2.7/dist-packages/django/core/cache/__init__'
p3187
sg12
g13
(g14
g15
NtRp3188
(dp3189
g18
I1
sg19
I0
sg20
I72
sg21
I0
sg22
I0
sg23
I23
sg24
I0
sbssg25
S'\xabF\x83p\\\xd7\x94\xfe\xe5kx\x9e\xbem\xb5n'
p3190
ssS'_usr_local_lib_python2_7_dist-packages_django_contrib_admin_models'
p3191
(dp3192
g6
(dp3193
g8
S'_usr_local_lib_python2_7_dist-packages_django_contrib_admin_models.html'
p3194
sg10
S'/usr/local/lib/python2.7/dist-packages/django/contrib/admin/models'
p3195
sg12
g13
(g14
g15
NtRp3196
(dp3197
g18
I1
sg19
I0
sg20
I57
sg21
I0
sg22
I0
sg23
I21
sg24
I0
sbssg25
S'\xde\xee:7u\xca\x9bwwf@9\x18I\x12\x18'
p3198
ssS'app1_migrations_0016_auto_20141106_1434'
p3199
(dp3200
g6
(dp3201
g8
S'app1_migrations_0016_auto_20141106_1434.html'
p3202
sg10
S'app1/migrations/0016_auto_20141106_1434'
p3203
sg12
g13
(g14
g15
NtRp3204
(dp3205
g18
I1
sg19
I0
sg20
I5
sg21
I0
sg22
I0
sg23
I0
sg24
I0
sbssg25
S'N+W\xa0\xa1\x93G\r\x17b\x94\x7f\xf6\xafb\xd4'
p3206
ssS'_usr_local_lib_python2_7_dist-packages_django_apps___init__'
p3207
(dp3208
g6
(dp3209
g8
S'_usr_local_lib_python2_7_dist-packages_django_apps___init__.html'
p3210
sg10
S'/usr/local/lib/python2.7/dist-packages/django/apps/__init__'
p3211
sg12
g13
(g14
g15
NtRp3212
(dp3213
g18
I1
sg19
I0
sg20
I2
sg21
I0
sg22
I0
sg23
I0
sg24
I0
sbssg25
S'\xaf\xd5\x87SN\x8c\x98\xdfl\xc6\x14\xe6\x0eO\xf7\x0c'
p3214
ssS'_usr_local_lib_python2_7_dist-packages_lettuce_registry'
p3215
(dp3216
g147
(dp3217
g105
S'_usr_local_lib_python2_7_dist-packages_lettuce_registry.html'
p3218
sg107
S'/usr/local/lib/python2.7/dist-packages/lettuce/registry'
p3219
sg109
g13
(g14
g15
NtRp3220
(dp3221
g18
I1
sg19
I0
sg20
I63
sg21
I0
sg22
I0
sg23
I40
sg24
I0
sbssg153
S'\xd5\x19\xc5\xa4\xc2\x9a`\xe4D\xba\x13\x04&\xfc\xac\x97'
p3222
ssS'_usr_local_lib_python2_7_dist-packages_unittest2_main'
p3223
(dp3224
g147
(dp3225
g105
S'_usr_local_lib_python2_7_dist-packages_unittest2_main.html'
p3226
sg107
S'/usr/local/lib/python2.7/dist-packages/unittest2/main'
p3227
sg109
g13
(g14
g15
NtRp3228
(dp3229
g18
I1
sg19
I0
sg20
I146
sg21
I0
sg22
I0
sg23
I116
sg24
I0
sbssg153
S'\xe1\xa9\xad\x98\x98P\x1e\xc8\x86Q:/\x86\x99\x80\xc4'
p3230
ssS'_usr_local_lib_python2_7_dist-packages_django_utils_datetime_safe'
p3231
(dp3232
g6
(dp3233
g8
S'_usr_local_lib_python2_7_dist-packages_django_utils_datetime_safe.html'
p3234
sg10
S'/usr/local/lib/python2.7/dist-packages/django/utils/datetime_safe'
p3235
sg12
g13
(g14
g15
NtRp3236
(dp3237
g18
I1
sg19
I0
sg20
I56
sg21
I0
sg22
I0
sg23
I42
sg24
I0
sbssg25
S'\xad%\xf7\x8aK@2\xdc\xa2\x8b\x0b\xb5\x90\xc4\xc2\xc1'
p3238
ssS'_usr_local_lib_python2_7_dist-packages_testtools_compat'
p3239
(dp3240
g147
(dp3241
g105
S'_usr_local_lib_python2_7_dist-packages_testtools_compat.html'
p3242
sg107
S'/usr/local/lib/python2.7/dist-packages/testtools/compat'
p3243
sg109
g13
(g14
g15
NtRp3244
(dp3245
g18
I1
sg19
I0
sg20
I205
sg21
I0
sg22
I0
sg23
I158
sg24
I0
sbssg153
S'&\\\xd5\xedN)\xdb.\xd8Sf^~\x84\xe4\x8f'
p3246
ssS'_usr_local_lib_python2_7_dist-packages_django_forms_utils'
p3247
(dp3248
g6
(dp3249
g70
S'_usr_local_lib_python2_7_dist-packages_django_forms_utils.html'
p3250
sg72
S'/usr/local/lib/python2.7/dist-packages/django/forms/utils'
p3251
sg74
g13
(g14
g15
NtRp3252
(dp3253
g18
I1
sg19
I0
sg20
I90
sg21
I0
sg22
I0
sg23
I39
sg24
I0
sbssg25
S'\x99\xc2\x85\x08\x888\xe5\xe8o/\\+\n o.'
p3254
ssS'_usr_local_lib_python2_7_dist-packages_django_contrib_auth_forms'
p3255
(dp3256
g6
(dp3257
g70
S'_usr_local_lib_python2_7_dist-packages_django_contrib_auth_forms.html'
p3258
sg72
S'/usr/local/lib/python2.7/dist-packages/django/contrib/auth/forms'
p3259
sg74
g13
(g14
g15
NtRp3260
(dp3261
g18
I1
sg19
I0
sg20
I189
sg21
I0
sg22
I0
sg23
I101
sg24
I0
sbssg25
S'\x1e\x7f5m\x03$\r%\x9b\xc76\xab\xe7\x1a\xa0~'
p3262
ssS'_usr_local_lib_python2_7_dist-packages_django___init__'
p3263
(dp3264
g6
(dp3265
g8
S'_usr_local_lib_python2_7_dist-packages_django___init__.html'
p3266
sg10
S'/usr/local/lib/python2.7/dist-packages/django/__init__'
p3267
sg12
g13
(g14
g15
NtRp3268
(dp3269
g18
I1
sg19
I0
sg20
I10
sg21
I0
sg22
I0
sg23
I0
sg24
I0
sbssg25
S'7A\xe2\x8c\x90\n\xbdZ\x13~z\xbfQ\xbf7\x9f'
p3270
sssS'version'
p3271
S'3.7.1'
p3272
sS'settings'
p3273
S'\x98\xa8x\xfe"r\xb5K\x98\xb1N\\\x99\x9e\xf3\xe5'
p3274
sS'format'
p3275
I1
s.